0000e288 t ___getpid_from_thumb
0000d310 T ___Unwind_Backtrace
0000d2ec T ___Unwind_ForcedUnwind
0000d280 T ___Unwind_RaiseException
0000d2a4 T ___Unwind_Resume
0000d2c8 T ___Unwind_Resume_or_Rethrow
0000ced4 T __aeabi_unwind_cpp_pr0
0000ced8 W __aeabi_unwind_cpp_pr1
0000cedc W __aeabi_unwind_cpp_pr2
00010410 B __bss_end__
000103b0 D __bss_start
000103b0 D __bss_start__
0000fb70 D __data_start
00010410 B __end__
0000fb70 r __exidx_end
0000f138 r __exidx_start
0000c8d4 t __gnu_unwind_24bit.isra.1
0000cb6c T __gnu_Unwind_Backtrace
0000d390 T __gnu_unwind_execute
0000ca4c T __gnu_Unwind_ForcedUnwind
0000d668 T __gnu_unwind_frame
0000c79c t __gnu_unwind_get_pr_addr
0000cbe0 t __gnu_unwind_pr_common
0000c9ec T __gnu_Unwind_RaiseException
0000d1a0 T __gnu_Unwind_Restore_VFP
0000d1b0 T __gnu_Unwind_Restore_VFP_D
0000d1c0 T __gnu_Unwind_Restore_VFP_D_16_to_31
0000d258 T __gnu_Unwind_Restore_WMMXC
0000d1d0 T __gnu_Unwind_Restore_WMMXD
0000ca60 T __gnu_Unwind_Resume
0000caa4 T __gnu_Unwind_Resume_or_Rethrow
0000d1a8 T __gnu_Unwind_Save_VFP
0000d1b8 T __gnu_Unwind_Save_VFP_D
0000d1c8 T __gnu_Unwind_Save_VFP_D_16_to_31
0000d26c T __gnu_Unwind_Save_WMMXC
0000d214 T __gnu_Unwind_Save_WMMXD
000103f0 B __lock___arc4random_mutex
00010400 B __lock___at_quick_exit_mutex
000103ec B __lock___atexit_recursive_mutex
00010404 B __lock___dd_hash_mutex
000103f4 B __lock___env_recursive_mutex
000103fc B __lock___malloc_recursive_mutex
0001040c B __lock___sfp_recursive_mutex
000103f8 B __lock___sinit_recursive_mutex
00010408 B __lock___tz_mutex
0000ffa0 D __malloc_av_
000103b4 B __malloc_current_mallinfo
0000ded4 T __malloc_lock
000103dc B __malloc_max_sbrked_mem
000103e0 B __malloc_max_total_mem
000103a8 D __malloc_sbrk_base
000103e4 B __malloc_top_pad
000103ac D __malloc_trim_threshold
0000dee0 T __malloc_unlock
0000d188 T __restore_core_regs
0000e26c T __retarget_lock_acquire
0000e270 T __retarget_lock_acquire_recursive
0000e264 T __retarget_lock_close
0000e268 T __retarget_lock_close_recursive
0000e25c T __retarget_lock_init
0000e260 T __retarget_lock_init_recursive
0000e27c T __retarget_lock_release
0000e280 T __retarget_lock_release_recursive
0000e274 T __retarget_lock_try_acquire
0000e278 T __retarget_lock_try_acquire_recursive
0000d914 T __sigtramp
0000d888 T __sigtramp_r
00010410 B _bss_end__
0000c5e8 T _cstartup
000103b0 D _edata
00010410 B _end
0000c6d0 T _exit
0000e070 T _free_r
0000c704 T _getpid
0000d950 T _getpid_r
0000e300 R _global_impure_ptr
0000fb70 D _impure_ptr
00008008 t _inf_loop
0000d8fc T _init_signal
0000d7e8 T _init_signal_r
0000d7c0 t _init_signal_r.part.0
0000c6e4 T _kill
0000d924 T _kill_r
0000d954 T _malloc_r
0000dfc4 T _malloc_trim_r
0000d830 T _raise_r
0000df14 T _reclaim_reent
0000c654 T _sbrk
0000df9c T _sbrk_r
0000d7f8 T _signal_r
00080000 N _stack
00008000 T _start
0000d310 T _Unwind_Backtrace
0000cab8 T _Unwind_Complete
0000c8d8 t _Unwind_DebugHook
0000c8c8 t _Unwind_decode_typeinfo_ptr.isra.0
0000cabc T _Unwind_DeleteException
0000d2ec T _Unwind_ForcedUnwind
0000c9e8 T _Unwind_GetCFA
0000d6b4 T _Unwind_GetDataRelBase
0000cb00 t _Unwind_GetGR
0000d370 t _Unwind_GetGR.constprop.0
0000d6a0 T _Unwind_GetLanguageSpecificData
0000d694 T _Unwind_GetRegionStart
0000d6bc T _Unwind_GetTextRelBase
0000d280 T _Unwind_RaiseException
0000d2a4 T _Unwind_Resume
0000d2c8 T _Unwind_Resume_or_Rethrow
0000cb50 t _Unwind_SetGR
0000cac8 T _Unwind_VRS_Get
0000cee0 T _Unwind_VRS_Pop
0000cb18 T _Unwind_VRS_Set
00008604 T _Z10test_clockv
00008884 T _Z11kernel_mainjjj
00008674 T _Z8test_pwmv
000087d4 T _Z9test_gpiov
0000800c T _ZN10PeripheralC1Em
0000800c T _ZN10PeripheralC2Em
00008e0c W _ZN11PWM_channel4initEPK3PWMj
00008f04 W _ZN13Clock_manager4initEPK5Clock10CLOCK_NAME
00009028 W _ZN13Timer_channel4initEPK5Timerj
00008340 T _ZN3PWMC1Ev
00008340 T _ZN3PWMC2Ev
000080f4 T _ZN4GPIOC1Ev
000080f4 T _ZN4GPIOC2Ev
000084e8 T _ZN5ClockC1Ev
000084e8 T _ZN5ClockC2Ev
00008578 T _ZN5TimerC1Ev
00008578 T _ZN5TimerC2Ev
0000c5a0 W _ZN6UnrollILj0EE4callIZNK4GPIO12pull_up_downIA28_jEEv10PUD_STATUSRKT_EUlvE_EEvS8_
0000c5c4 W _ZN6UnrollILj0EE4callIZNK4GPIO12pull_up_downIA28_jEEv10PUD_STATUSRKT_EUlvE0_EEvS8_
0000a340 W _ZN6UnrollILj100EE4callIZNK4GPIO12pull_up_downIA28_jEEv10PUD_STATUSRKT_EUlvE_EEvS8_
0000a36c W _ZN6UnrollILj100EE4callIZNK4GPIO12pull_up_downIA28_jEEv10PUD_STATUSRKT_EUlvE0_EEvS8_
0000a2e8 W _ZN6UnrollILj101EE4callIZNK4GPIO12pull_up_downIA28_jEEv10PUD_STATUSRKT_EUlvE_EEvS8_
0000a314 W _ZN6UnrollILj101EE4callIZNK4GPIO12pull_up_downIA28_jEEv10PUD_STATUSRKT_EUlvE0_EEvS8_
0000a290 W _ZN6UnrollILj102EE4callIZNK4GPIO12pull_up_downIA28_jEEv10PUD_STATUSRKT_EUlvE_EEvS8_
0000a2bc W _ZN6UnrollILj102EE4callIZNK4GPIO12pull_up_downIA28_jEEv10PUD_STATUSRKT_EUlvE0_EEvS8_
0000a238 W _ZN6UnrollILj103EE4callIZNK4GPIO12pull_up_downIA28_jEEv10PUD_STATUSRKT_EUlvE_EEvS8_
0000a264 W _ZN6UnrollILj103EE4callIZNK4GPIO12pull_up_downIA28_jEEv10PUD_STATUSRKT_EUlvE0_EEvS8_
0000a1e0 W _ZN6UnrollILj104EE4callIZNK4GPIO12pull_up_downIA28_jEEv10PUD_STATUSRKT_EUlvE_EEvS8_
0000a20c W _ZN6UnrollILj104EE4callIZNK4GPIO12pull_up_downIA28_jEEv10PUD_STATUSRKT_EUlvE0_EEvS8_
0000a188 W _ZN6UnrollILj105EE4callIZNK4GPIO12pull_up_downIA28_jEEv10PUD_STATUSRKT_EUlvE_EEvS8_
0000a1b4 W _ZN6UnrollILj105EE4callIZNK4GPIO12pull_up_downIA28_jEEv10PUD_STATUSRKT_EUlvE0_EEvS8_
0000a130 W _ZN6UnrollILj106EE4callIZNK4GPIO12pull_up_downIA28_jEEv10PUD_STATUSRKT_EUlvE_EEvS8_
0000a15c W _ZN6UnrollILj106EE4callIZNK4GPIO12pull_up_downIA28_jEEv10PUD_STATUSRKT_EUlvE0_EEvS8_
0000a0d8 W _ZN6UnrollILj107EE4callIZNK4GPIO12pull_up_downIA28_jEEv10PUD_STATUSRKT_EUlvE_EEvS8_
0000a104 W _ZN6UnrollILj107EE4callIZNK4GPIO12pull_up_downIA28_jEEv10PUD_STATUSRKT_EUlvE0_EEvS8_
0000a080 W _ZN6UnrollILj108EE4callIZNK4GPIO12pull_up_downIA28_jEEv10PUD_STATUSRKT_EUlvE_EEvS8_
0000a0ac W _ZN6UnrollILj108EE4callIZNK4GPIO12pull_up_downIA28_jEEv10PUD_STATUSRKT_EUlvE0_EEvS8_
0000a028 W _ZN6UnrollILj109EE4callIZNK4GPIO12pull_up_downIA28_jEEv10PUD_STATUSRKT_EUlvE_EEvS8_
0000a054 W _ZN6UnrollILj109EE4callIZNK4GPIO12pull_up_downIA28_jEEv10PUD_STATUSRKT_EUlvE0_EEvS8_
0000c230 W _ZN6UnrollILj10EE4callIZNK4GPIO12pull_up_downIA28_jEEv10PUD_STATUSRKT_EUlvE_EEvS8_
0000c25c W _ZN6UnrollILj10EE4callIZNK4GPIO12pull_up_downIA28_jEEv10PUD_STATUSRKT_EUlvE0_EEvS8_
00009fd0 W _ZN6UnrollILj110EE4callIZNK4GPIO12pull_up_downIA28_jEEv10PUD_STATUSRKT_EUlvE_EEvS8_
00009ffc W _ZN6UnrollILj110EE4callIZNK4GPIO12pull_up_downIA28_jEEv10PUD_STATUSRKT_EUlvE0_EEvS8_
00009f78 W _ZN6UnrollILj111EE4callIZNK4GPIO12pull_up_downIA28_jEEv10PUD_STATUSRKT_EUlvE_EEvS8_
00009fa4 W _ZN6UnrollILj111EE4callIZNK4GPIO12pull_up_downIA28_jEEv10PUD_STATUSRKT_EUlvE0_EEvS8_
00009f20 W _ZN6UnrollILj112EE4callIZNK4GPIO12pull_up_downIA28_jEEv10PUD_STATUSRKT_EUlvE_EEvS8_
00009f4c W _ZN6UnrollILj112EE4callIZNK4GPIO12pull_up_downIA28_jEEv10PUD_STATUSRKT_EUlvE0_EEvS8_
00009ec8 W _ZN6UnrollILj113EE4callIZNK4GPIO12pull_up_downIA28_jEEv10PUD_STATUSRKT_EUlvE_EEvS8_
00009ef4 W _ZN6UnrollILj113EE4callIZNK4GPIO12pull_up_downIA28_jEEv10PUD_STATUSRKT_EUlvE0_EEvS8_
00009e70 W _ZN6UnrollILj114EE4callIZNK4GPIO12pull_up_downIA28_jEEv10PUD_STATUSRKT_EUlvE_EEvS8_
00009e9c W _ZN6UnrollILj114EE4callIZNK4GPIO12pull_up_downIA28_jEEv10PUD_STATUSRKT_EUlvE0_EEvS8_
00009e18 W _ZN6UnrollILj115EE4callIZNK4GPIO12pull_up_downIA28_jEEv10PUD_STATUSRKT_EUlvE_EEvS8_
00009e44 W _ZN6UnrollILj115EE4callIZNK4GPIO12pull_up_downIA28_jEEv10PUD_STATUSRKT_EUlvE0_EEvS8_
00009dc0 W _ZN6UnrollILj116EE4callIZNK4GPIO12pull_up_downIA28_jEEv10PUD_STATUSRKT_EUlvE_EEvS8_
00009dec W _ZN6UnrollILj116EE4callIZNK4GPIO12pull_up_downIA28_jEEv10PUD_STATUSRKT_EUlvE0_EEvS8_
00009d68 W _ZN6UnrollILj117EE4callIZNK4GPIO12pull_up_downIA28_jEEv10PUD_STATUSRKT_EUlvE_EEvS8_
00009d94 W _ZN6UnrollILj117EE4callIZNK4GPIO12pull_up_downIA28_jEEv10PUD_STATUSRKT_EUlvE0_EEvS8_
00009d10 W _ZN6UnrollILj118EE4callIZNK4GPIO12pull_up_downIA28_jEEv10PUD_STATUSRKT_EUlvE_EEvS8_
00009d3c W _ZN6UnrollILj118EE4callIZNK4GPIO12pull_up_downIA28_jEEv10PUD_STATUSRKT_EUlvE0_EEvS8_
00009cb8 W _ZN6UnrollILj119EE4callIZNK4GPIO12pull_up_downIA28_jEEv10PUD_STATUSRKT_EUlvE_EEvS8_
00009ce4 W _ZN6UnrollILj119EE4callIZNK4GPIO12pull_up_downIA28_jEEv10PUD_STATUSRKT_EUlvE0_EEvS8_
0000c1d8 W _ZN6UnrollILj11EE4callIZNK4GPIO12pull_up_downIA28_jEEv10PUD_STATUSRKT_EUlvE_EEvS8_
0000c204 W _ZN6UnrollILj11EE4callIZNK4GPIO12pull_up_downIA28_jEEv10PUD_STATUSRKT_EUlvE0_EEvS8_
00009c60 W _ZN6UnrollILj120EE4callIZNK4GPIO12pull_up_downIA28_jEEv10PUD_STATUSRKT_EUlvE_EEvS8_
00009c8c W _ZN6UnrollILj120EE4callIZNK4GPIO12pull_up_downIA28_jEEv10PUD_STATUSRKT_EUlvE0_EEvS8_
00009c08 W _ZN6UnrollILj121EE4callIZNK4GPIO12pull_up_downIA28_jEEv10PUD_STATUSRKT_EUlvE_EEvS8_
00009c34 W _ZN6UnrollILj121EE4callIZNK4GPIO12pull_up_downIA28_jEEv10PUD_STATUSRKT_EUlvE0_EEvS8_
00009bb0 W _ZN6UnrollILj122EE4callIZNK4GPIO12pull_up_downIA28_jEEv10PUD_STATUSRKT_EUlvE_EEvS8_
00009bdc W _ZN6UnrollILj122EE4callIZNK4GPIO12pull_up_downIA28_jEEv10PUD_STATUSRKT_EUlvE0_EEvS8_
00009b58 W _ZN6UnrollILj123EE4callIZNK4GPIO12pull_up_downIA28_jEEv10PUD_STATUSRKT_EUlvE_EEvS8_
00009b84 W _ZN6UnrollILj123EE4callIZNK4GPIO12pull_up_downIA28_jEEv10PUD_STATUSRKT_EUlvE0_EEvS8_
00009b00 W _ZN6UnrollILj124EE4callIZNK4GPIO12pull_up_downIA28_jEEv10PUD_STATUSRKT_EUlvE_EEvS8_
00009b2c W _ZN6UnrollILj124EE4callIZNK4GPIO12pull_up_downIA28_jEEv10PUD_STATUSRKT_EUlvE0_EEvS8_
00009aa8 W _ZN6UnrollILj125EE4callIZNK4GPIO12pull_up_downIA28_jEEv10PUD_STATUSRKT_EUlvE_EEvS8_
00009ad4 W _ZN6UnrollILj125EE4callIZNK4GPIO12pull_up_downIA28_jEEv10PUD_STATUSRKT_EUlvE0_EEvS8_
00009a50 W _ZN6UnrollILj126EE4callIZNK4GPIO12pull_up_downIA28_jEEv10PUD_STATUSRKT_EUlvE_EEvS8_
00009a7c W _ZN6UnrollILj126EE4callIZNK4GPIO12pull_up_downIA28_jEEv10PUD_STATUSRKT_EUlvE0_EEvS8_
000099f8 W _ZN6UnrollILj127EE4callIZNK4GPIO12pull_up_downIA28_jEEv10PUD_STATUSRKT_EUlvE_EEvS8_
00009a24 W _ZN6UnrollILj127EE4callIZNK4GPIO12pull_up_downIA28_jEEv10PUD_STATUSRKT_EUlvE0_EEvS8_
000099a0 W _ZN6UnrollILj128EE4callIZNK4GPIO12pull_up_downIA28_jEEv10PUD_STATUSRKT_EUlvE_EEvS8_
000099cc W _ZN6UnrollILj128EE4callIZNK4GPIO12pull_up_downIA28_jEEv10PUD_STATUSRKT_EUlvE0_EEvS8_
00009948 W _ZN6UnrollILj129EE4callIZNK4GPIO12pull_up_downIA28_jEEv10PUD_STATUSRKT_EUlvE_EEvS8_
00009974 W _ZN6UnrollILj129EE4callIZNK4GPIO12pull_up_downIA28_jEEv10PUD_STATUSRKT_EUlvE0_EEvS8_
0000c180 W _ZN6UnrollILj12EE4callIZNK4GPIO12pull_up_downIA28_jEEv10PUD_STATUSRKT_EUlvE_EEvS8_
0000c1ac W _ZN6UnrollILj12EE4callIZNK4GPIO12pull_up_downIA28_jEEv10PUD_STATUSRKT_EUlvE0_EEvS8_
000098f0 W _ZN6UnrollILj130EE4callIZNK4GPIO12pull_up_downIA28_jEEv10PUD_STATUSRKT_EUlvE_EEvS8_
0000991c W _ZN6UnrollILj130EE4callIZNK4GPIO12pull_up_downIA28_jEEv10PUD_STATUSRKT_EUlvE0_EEvS8_
00009898 W _ZN6UnrollILj131EE4callIZNK4GPIO12pull_up_downIA28_jEEv10PUD_STATUSRKT_EUlvE_EEvS8_
000098c4 W _ZN6UnrollILj131EE4callIZNK4GPIO12pull_up_downIA28_jEEv10PUD_STATUSRKT_EUlvE0_EEvS8_
00009840 W _ZN6UnrollILj132EE4callIZNK4GPIO12pull_up_downIA28_jEEv10PUD_STATUSRKT_EUlvE_EEvS8_
0000986c W _ZN6UnrollILj132EE4callIZNK4GPIO12pull_up_downIA28_jEEv10PUD_STATUSRKT_EUlvE0_EEvS8_
000097e8 W _ZN6UnrollILj133EE4callIZNK4GPIO12pull_up_downIA28_jEEv10PUD_STATUSRKT_EUlvE_EEvS8_
00009814 W _ZN6UnrollILj133EE4callIZNK4GPIO12pull_up_downIA28_jEEv10PUD_STATUSRKT_EUlvE0_EEvS8_
00009790 W _ZN6UnrollILj134EE4callIZNK4GPIO12pull_up_downIA28_jEEv10PUD_STATUSRKT_EUlvE_EEvS8_
000097bc W _ZN6UnrollILj134EE4callIZNK4GPIO12pull_up_downIA28_jEEv10PUD_STATUSRKT_EUlvE0_EEvS8_
00009738 W _ZN6UnrollILj135EE4callIZNK4GPIO12pull_up_downIA28_jEEv10PUD_STATUSRKT_EUlvE_EEvS8_
00009764 W _ZN6UnrollILj135EE4callIZNK4GPIO12pull_up_downIA28_jEEv10PUD_STATUSRKT_EUlvE0_EEvS8_
000096e0 W _ZN6UnrollILj136EE4callIZNK4GPIO12pull_up_downIA28_jEEv10PUD_STATUSRKT_EUlvE_EEvS8_
0000970c W _ZN6UnrollILj136EE4callIZNK4GPIO12pull_up_downIA28_jEEv10PUD_STATUSRKT_EUlvE0_EEvS8_
00009688 W _ZN6UnrollILj137EE4callIZNK4GPIO12pull_up_downIA28_jEEv10PUD_STATUSRKT_EUlvE_EEvS8_
000096b4 W _ZN6UnrollILj137EE4callIZNK4GPIO12pull_up_downIA28_jEEv10PUD_STATUSRKT_EUlvE0_EEvS8_
00009630 W _ZN6UnrollILj138EE4callIZNK4GPIO12pull_up_downIA28_jEEv10PUD_STATUSRKT_EUlvE_EEvS8_
0000965c W _ZN6UnrollILj138EE4callIZNK4GPIO12pull_up_downIA28_jEEv10PUD_STATUSRKT_EUlvE0_EEvS8_
000095d8 W _ZN6UnrollILj139EE4callIZNK4GPIO12pull_up_downIA28_jEEv10PUD_STATUSRKT_EUlvE_EEvS8_
00009604 W _ZN6UnrollILj139EE4callIZNK4GPIO12pull_up_downIA28_jEEv10PUD_STATUSRKT_EUlvE0_EEvS8_
0000c128 W _ZN6UnrollILj13EE4callIZNK4GPIO12pull_up_downIA28_jEEv10PUD_STATUSRKT_EUlvE_EEvS8_
0000c154 W _ZN6UnrollILj13EE4callIZNK4GPIO12pull_up_downIA28_jEEv10PUD_STATUSRKT_EUlvE0_EEvS8_
00009580 W _ZN6UnrollILj140EE4callIZNK4GPIO12pull_up_downIA28_jEEv10PUD_STATUSRKT_EUlvE_EEvS8_
000095ac W _ZN6UnrollILj140EE4callIZNK4GPIO12pull_up_downIA28_jEEv10PUD_STATUSRKT_EUlvE0_EEvS8_
00009528 W _ZN6UnrollILj141EE4callIZNK4GPIO12pull_up_downIA28_jEEv10PUD_STATUSRKT_EUlvE_EEvS8_
00009554 W _ZN6UnrollILj141EE4callIZNK4GPIO12pull_up_downIA28_jEEv10PUD_STATUSRKT_EUlvE0_EEvS8_
000094d0 W _ZN6UnrollILj142EE4callIZNK4GPIO12pull_up_downIA28_jEEv10PUD_STATUSRKT_EUlvE_EEvS8_
000094fc W _ZN6UnrollILj142EE4callIZNK4GPIO12pull_up_downIA28_jEEv10PUD_STATUSRKT_EUlvE0_EEvS8_
00009478 W _ZN6UnrollILj143EE4callIZNK4GPIO12pull_up_downIA28_jEEv10PUD_STATUSRKT_EUlvE_EEvS8_
000094a4 W _ZN6UnrollILj143EE4callIZNK4GPIO12pull_up_downIA28_jEEv10PUD_STATUSRKT_EUlvE0_EEvS8_
00009420 W _ZN6UnrollILj144EE4callIZNK4GPIO12pull_up_downIA28_jEEv10PUD_STATUSRKT_EUlvE_EEvS8_
0000944c W _ZN6UnrollILj144EE4callIZNK4GPIO12pull_up_downIA28_jEEv10PUD_STATUSRKT_EUlvE0_EEvS8_
000093c8 W _ZN6UnrollILj145EE4callIZNK4GPIO12pull_up_downIA28_jEEv10PUD_STATUSRKT_EUlvE_EEvS8_
000093f4 W _ZN6UnrollILj145EE4callIZNK4GPIO12pull_up_downIA28_jEEv10PUD_STATUSRKT_EUlvE0_EEvS8_
00009370 W _ZN6UnrollILj146EE4callIZNK4GPIO12pull_up_downIA28_jEEv10PUD_STATUSRKT_EUlvE_EEvS8_
0000939c W _ZN6UnrollILj146EE4callIZNK4GPIO12pull_up_downIA28_jEEv10PUD_STATUSRKT_EUlvE0_EEvS8_
00009318 W _ZN6UnrollILj147EE4callIZNK4GPIO12pull_up_downIA28_jEEv10PUD_STATUSRKT_EUlvE_EEvS8_
00009344 W _ZN6UnrollILj147EE4callIZNK4GPIO12pull_up_downIA28_jEEv10PUD_STATUSRKT_EUlvE0_EEvS8_
000092c0 W _ZN6UnrollILj148EE4callIZNK4GPIO12pull_up_downIA28_jEEv10PUD_STATUSRKT_EUlvE_EEvS8_
000092ec W _ZN6UnrollILj148EE4callIZNK4GPIO12pull_up_downIA28_jEEv10PUD_STATUSRKT_EUlvE0_EEvS8_
00009268 W _ZN6UnrollILj149EE4callIZNK4GPIO12pull_up_downIA28_jEEv10PUD_STATUSRKT_EUlvE_EEvS8_
00009294 W _ZN6UnrollILj149EE4callIZNK4GPIO12pull_up_downIA28_jEEv10PUD_STATUSRKT_EUlvE0_EEvS8_
0000c0d0 W _ZN6UnrollILj14EE4callIZNK4GPIO12pull_up_downIA28_jEEv10PUD_STATUSRKT_EUlvE_EEvS8_
0000c0fc W _ZN6UnrollILj14EE4callIZNK4GPIO12pull_up_downIA28_jEEv10PUD_STATUSRKT_EUlvE0_EEvS8_
00009210 W _ZN6UnrollILj150EE4callIZNK4GPIO12pull_up_downIA28_jEEv10PUD_STATUSRKT_EUlvE_EEvS8_
0000923c W _ZN6UnrollILj150EE4callIZNK4GPIO12pull_up_downIA28_jEEv10PUD_STATUSRKT_EUlvE0_EEvS8_
0000c078 W _ZN6UnrollILj15EE4callIZNK4GPIO12pull_up_downIA28_jEEv10PUD_STATUSRKT_EUlvE_EEvS8_
0000c0a4 W _ZN6UnrollILj15EE4callIZNK4GPIO12pull_up_downIA28_jEEv10PUD_STATUSRKT_EUlvE0_EEvS8_
0000c020 W _ZN6UnrollILj16EE4callIZNK4GPIO12pull_up_downIA28_jEEv10PUD_STATUSRKT_EUlvE_EEvS8_
0000c04c W _ZN6UnrollILj16EE4callIZNK4GPIO12pull_up_downIA28_jEEv10PUD_STATUSRKT_EUlvE0_EEvS8_
0000bfc8 W _ZN6UnrollILj17EE4callIZNK4GPIO12pull_up_downIA28_jEEv10PUD_STATUSRKT_EUlvE_EEvS8_
0000bff4 W _ZN6UnrollILj17EE4callIZNK4GPIO12pull_up_downIA28_jEEv10PUD_STATUSRKT_EUlvE0_EEvS8_
0000bf70 W _ZN6UnrollILj18EE4callIZNK4GPIO12pull_up_downIA28_jEEv10PUD_STATUSRKT_EUlvE_EEvS8_
0000bf9c W _ZN6UnrollILj18EE4callIZNK4GPIO12pull_up_downIA28_jEEv10PUD_STATUSRKT_EUlvE0_EEvS8_
0000bf18 W _ZN6UnrollILj19EE4callIZNK4GPIO12pull_up_downIA28_jEEv10PUD_STATUSRKT_EUlvE_EEvS8_
0000bf44 W _ZN6UnrollILj19EE4callIZNK4GPIO12pull_up_downIA28_jEEv10PUD_STATUSRKT_EUlvE0_EEvS8_
0000c548 W _ZN6UnrollILj1EE4callIZNK4GPIO12pull_up_downIA28_jEEv10PUD_STATUSRKT_EUlvE_EEvS8_
0000c574 W _ZN6UnrollILj1EE4callIZNK4GPIO12pull_up_downIA28_jEEv10PUD_STATUSRKT_EUlvE0_EEvS8_
0000bec0 W _ZN6UnrollILj20EE4callIZNK4GPIO12pull_up_downIA28_jEEv10PUD_STATUSRKT_EUlvE_EEvS8_
0000beec W _ZN6UnrollILj20EE4callIZNK4GPIO12pull_up_downIA28_jEEv10PUD_STATUSRKT_EUlvE0_EEvS8_
0000be68 W _ZN6UnrollILj21EE4callIZNK4GPIO12pull_up_downIA28_jEEv10PUD_STATUSRKT_EUlvE_EEvS8_
0000be94 W _ZN6UnrollILj21EE4callIZNK4GPIO12pull_up_downIA28_jEEv10PUD_STATUSRKT_EUlvE0_EEvS8_
0000be10 W _ZN6UnrollILj22EE4callIZNK4GPIO12pull_up_downIA28_jEEv10PUD_STATUSRKT_EUlvE_EEvS8_
0000be3c W _ZN6UnrollILj22EE4callIZNK4GPIO12pull_up_downIA28_jEEv10PUD_STATUSRKT_EUlvE0_EEvS8_
0000bdb8 W _ZN6UnrollILj23EE4callIZNK4GPIO12pull_up_downIA28_jEEv10PUD_STATUSRKT_EUlvE_EEvS8_
0000bde4 W _ZN6UnrollILj23EE4callIZNK4GPIO12pull_up_downIA28_jEEv10PUD_STATUSRKT_EUlvE0_EEvS8_
0000bd60 W _ZN6UnrollILj24EE4callIZNK4GPIO12pull_up_downIA28_jEEv10PUD_STATUSRKT_EUlvE_EEvS8_
0000bd8c W _ZN6UnrollILj24EE4callIZNK4GPIO12pull_up_downIA28_jEEv10PUD_STATUSRKT_EUlvE0_EEvS8_
0000bd08 W _ZN6UnrollILj25EE4callIZNK4GPIO12pull_up_downIA28_jEEv10PUD_STATUSRKT_EUlvE_EEvS8_
0000bd34 W _ZN6UnrollILj25EE4callIZNK4GPIO12pull_up_downIA28_jEEv10PUD_STATUSRKT_EUlvE0_EEvS8_
0000bcb0 W _ZN6UnrollILj26EE4callIZNK4GPIO12pull_up_downIA28_jEEv10PUD_STATUSRKT_EUlvE_EEvS8_
0000bcdc W _ZN6UnrollILj26EE4callIZNK4GPIO12pull_up_downIA28_jEEv10PUD_STATUSRKT_EUlvE0_EEvS8_
0000bc58 W _ZN6UnrollILj27EE4callIZNK4GPIO12pull_up_downIA28_jEEv10PUD_STATUSRKT_EUlvE_EEvS8_
0000bc84 W _ZN6UnrollILj27EE4callIZNK4GPIO12pull_up_downIA28_jEEv10PUD_STATUSRKT_EUlvE0_EEvS8_
0000bc00 W _ZN6UnrollILj28EE4callIZNK4GPIO12pull_up_downIA28_jEEv10PUD_STATUSRKT_EUlvE_EEvS8_
0000bc2c W _ZN6UnrollILj28EE4callIZNK4GPIO12pull_up_downIA28_jEEv10PUD_STATUSRKT_EUlvE0_EEvS8_
0000bba8 W _ZN6UnrollILj29EE4callIZNK4GPIO12pull_up_downIA28_jEEv10PUD_STATUSRKT_EUlvE_EEvS8_
0000bbd4 W _ZN6UnrollILj29EE4callIZNK4GPIO12pull_up_downIA28_jEEv10PUD_STATUSRKT_EUlvE0_EEvS8_
0000c4f0 W _ZN6UnrollILj2EE4callIZNK4GPIO12pull_up_downIA28_jEEv10PUD_STATUSRKT_EUlvE_EEvS8_
0000c51c W _ZN6UnrollILj2EE4callIZNK4GPIO12pull_up_downIA28_jEEv10PUD_STATUSRKT_EUlvE0_EEvS8_
0000bb50 W _ZN6UnrollILj30EE4callIZNK4GPIO12pull_up_downIA28_jEEv10PUD_STATUSRKT_EUlvE_EEvS8_
0000bb7c W _ZN6UnrollILj30EE4callIZNK4GPIO12pull_up_downIA28_jEEv10PUD_STATUSRKT_EUlvE0_EEvS8_
0000baf8 W _ZN6UnrollILj31EE4callIZNK4GPIO12pull_up_downIA28_jEEv10PUD_STATUSRKT_EUlvE_EEvS8_
0000bb24 W _ZN6UnrollILj31EE4callIZNK4GPIO12pull_up_downIA28_jEEv10PUD_STATUSRKT_EUlvE0_EEvS8_
0000baa0 W _ZN6UnrollILj32EE4callIZNK4GPIO12pull_up_downIA28_jEEv10PUD_STATUSRKT_EUlvE_EEvS8_
0000bacc W _ZN6UnrollILj32EE4callIZNK4GPIO12pull_up_downIA28_jEEv10PUD_STATUSRKT_EUlvE0_EEvS8_
0000ba48 W _ZN6UnrollILj33EE4callIZNK4GPIO12pull_up_downIA28_jEEv10PUD_STATUSRKT_EUlvE_EEvS8_
0000ba74 W _ZN6UnrollILj33EE4callIZNK4GPIO12pull_up_downIA28_jEEv10PUD_STATUSRKT_EUlvE0_EEvS8_
0000b9f0 W _ZN6UnrollILj34EE4callIZNK4GPIO12pull_up_downIA28_jEEv10PUD_STATUSRKT_EUlvE_EEvS8_
0000ba1c W _ZN6UnrollILj34EE4callIZNK4GPIO12pull_up_downIA28_jEEv10PUD_STATUSRKT_EUlvE0_EEvS8_
0000b998 W _ZN6UnrollILj35EE4callIZNK4GPIO12pull_up_downIA28_jEEv10PUD_STATUSRKT_EUlvE_EEvS8_
0000b9c4 W _ZN6UnrollILj35EE4callIZNK4GPIO12pull_up_downIA28_jEEv10PUD_STATUSRKT_EUlvE0_EEvS8_
0000b940 W _ZN6UnrollILj36EE4callIZNK4GPIO12pull_up_downIA28_jEEv10PUD_STATUSRKT_EUlvE_EEvS8_
0000b96c W _ZN6UnrollILj36EE4callIZNK4GPIO12pull_up_downIA28_jEEv10PUD_STATUSRKT_EUlvE0_EEvS8_
0000b8e8 W _ZN6UnrollILj37EE4callIZNK4GPIO12pull_up_downIA28_jEEv10PUD_STATUSRKT_EUlvE_EEvS8_
0000b914 W _ZN6UnrollILj37EE4callIZNK4GPIO12pull_up_downIA28_jEEv10PUD_STATUSRKT_EUlvE0_EEvS8_
0000b890 W _ZN6UnrollILj38EE4callIZNK4GPIO12pull_up_downIA28_jEEv10PUD_STATUSRKT_EUlvE_EEvS8_
0000b8bc W _ZN6UnrollILj38EE4callIZNK4GPIO12pull_up_downIA28_jEEv10PUD_STATUSRKT_EUlvE0_EEvS8_
0000b838 W _ZN6UnrollILj39EE4callIZNK4GPIO12pull_up_downIA28_jEEv10PUD_STATUSRKT_EUlvE_EEvS8_
0000b864 W _ZN6UnrollILj39EE4callIZNK4GPIO12pull_up_downIA28_jEEv10PUD_STATUSRKT_EUlvE0_EEvS8_
0000c498 W _ZN6UnrollILj3EE4callIZNK4GPIO12pull_up_downIA28_jEEv10PUD_STATUSRKT_EUlvE_EEvS8_
0000c4c4 W _ZN6UnrollILj3EE4callIZNK4GPIO12pull_up_downIA28_jEEv10PUD_STATUSRKT_EUlvE0_EEvS8_
0000b7e0 W _ZN6UnrollILj40EE4callIZNK4GPIO12pull_up_downIA28_jEEv10PUD_STATUSRKT_EUlvE_EEvS8_
0000b80c W _ZN6UnrollILj40EE4callIZNK4GPIO12pull_up_downIA28_jEEv10PUD_STATUSRKT_EUlvE0_EEvS8_
0000b788 W _ZN6UnrollILj41EE4callIZNK4GPIO12pull_up_downIA28_jEEv10PUD_STATUSRKT_EUlvE_EEvS8_
0000b7b4 W _ZN6UnrollILj41EE4callIZNK4GPIO12pull_up_downIA28_jEEv10PUD_STATUSRKT_EUlvE0_EEvS8_
0000b730 W _ZN6UnrollILj42EE4callIZNK4GPIO12pull_up_downIA28_jEEv10PUD_STATUSRKT_EUlvE_EEvS8_
0000b75c W _ZN6UnrollILj42EE4callIZNK4GPIO12pull_up_downIA28_jEEv10PUD_STATUSRKT_EUlvE0_EEvS8_
0000b6d8 W _ZN6UnrollILj43EE4callIZNK4GPIO12pull_up_downIA28_jEEv10PUD_STATUSRKT_EUlvE_EEvS8_
0000b704 W _ZN6UnrollILj43EE4callIZNK4GPIO12pull_up_downIA28_jEEv10PUD_STATUSRKT_EUlvE0_EEvS8_
0000b680 W _ZN6UnrollILj44EE4callIZNK4GPIO12pull_up_downIA28_jEEv10PUD_STATUSRKT_EUlvE_EEvS8_
0000b6ac W _ZN6UnrollILj44EE4callIZNK4GPIO12pull_up_downIA28_jEEv10PUD_STATUSRKT_EUlvE0_EEvS8_
0000b628 W _ZN6UnrollILj45EE4callIZNK4GPIO12pull_up_downIA28_jEEv10PUD_STATUSRKT_EUlvE_EEvS8_
0000b654 W _ZN6UnrollILj45EE4callIZNK4GPIO12pull_up_downIA28_jEEv10PUD_STATUSRKT_EUlvE0_EEvS8_
0000b5d0 W _ZN6UnrollILj46EE4callIZNK4GPIO12pull_up_downIA28_jEEv10PUD_STATUSRKT_EUlvE_EEvS8_
0000b5fc W _ZN6UnrollILj46EE4callIZNK4GPIO12pull_up_downIA28_jEEv10PUD_STATUSRKT_EUlvE0_EEvS8_
0000b578 W _ZN6UnrollILj47EE4callIZNK4GPIO12pull_up_downIA28_jEEv10PUD_STATUSRKT_EUlvE_EEvS8_
0000b5a4 W _ZN6UnrollILj47EE4callIZNK4GPIO12pull_up_downIA28_jEEv10PUD_STATUSRKT_EUlvE0_EEvS8_
0000b520 W _ZN6UnrollILj48EE4callIZNK4GPIO12pull_up_downIA28_jEEv10PUD_STATUSRKT_EUlvE_EEvS8_
0000b54c W _ZN6UnrollILj48EE4callIZNK4GPIO12pull_up_downIA28_jEEv10PUD_STATUSRKT_EUlvE0_EEvS8_
0000b4c8 W _ZN6UnrollILj49EE4callIZNK4GPIO12pull_up_downIA28_jEEv10PUD_STATUSRKT_EUlvE_EEvS8_
0000b4f4 W _ZN6UnrollILj49EE4callIZNK4GPIO12pull_up_downIA28_jEEv10PUD_STATUSRKT_EUlvE0_EEvS8_
0000c440 W _ZN6UnrollILj4EE4callIZNK4GPIO12pull_up_downIA28_jEEv10PUD_STATUSRKT_EUlvE_EEvS8_
0000c46c W _ZN6UnrollILj4EE4callIZNK4GPIO12pull_up_downIA28_jEEv10PUD_STATUSRKT_EUlvE0_EEvS8_
0000b470 W _ZN6UnrollILj50EE4callIZNK4GPIO12pull_up_downIA28_jEEv10PUD_STATUSRKT_EUlvE_EEvS8_
0000b49c W _ZN6UnrollILj50EE4callIZNK4GPIO12pull_up_downIA28_jEEv10PUD_STATUSRKT_EUlvE0_EEvS8_
0000b418 W _ZN6UnrollILj51EE4callIZNK4GPIO12pull_up_downIA28_jEEv10PUD_STATUSRKT_EUlvE_EEvS8_
0000b444 W _ZN6UnrollILj51EE4callIZNK4GPIO12pull_up_downIA28_jEEv10PUD_STATUSRKT_EUlvE0_EEvS8_
0000b3c0 W _ZN6UnrollILj52EE4callIZNK4GPIO12pull_up_downIA28_jEEv10PUD_STATUSRKT_EUlvE_EEvS8_
0000b3ec W _ZN6UnrollILj52EE4callIZNK4GPIO12pull_up_downIA28_jEEv10PUD_STATUSRKT_EUlvE0_EEvS8_
0000b368 W _ZN6UnrollILj53EE4callIZNK4GPIO12pull_up_downIA28_jEEv10PUD_STATUSRKT_EUlvE_EEvS8_
0000b394 W _ZN6UnrollILj53EE4callIZNK4GPIO12pull_up_downIA28_jEEv10PUD_STATUSRKT_EUlvE0_EEvS8_
0000b310 W _ZN6UnrollILj54EE4callIZNK4GPIO12pull_up_downIA28_jEEv10PUD_STATUSRKT_EUlvE_EEvS8_
0000b33c W _ZN6UnrollILj54EE4callIZNK4GPIO12pull_up_downIA28_jEEv10PUD_STATUSRKT_EUlvE0_EEvS8_
0000b2b8 W _ZN6UnrollILj55EE4callIZNK4GPIO12pull_up_downIA28_jEEv10PUD_STATUSRKT_EUlvE_EEvS8_
0000b2e4 W _ZN6UnrollILj55EE4callIZNK4GPIO12pull_up_downIA28_jEEv10PUD_STATUSRKT_EUlvE0_EEvS8_
0000b260 W _ZN6UnrollILj56EE4callIZNK4GPIO12pull_up_downIA28_jEEv10PUD_STATUSRKT_EUlvE_EEvS8_
0000b28c W _ZN6UnrollILj56EE4callIZNK4GPIO12pull_up_downIA28_jEEv10PUD_STATUSRKT_EUlvE0_EEvS8_
0000b208 W _ZN6UnrollILj57EE4callIZNK4GPIO12pull_up_downIA28_jEEv10PUD_STATUSRKT_EUlvE_EEvS8_
0000b234 W _ZN6UnrollILj57EE4callIZNK4GPIO12pull_up_downIA28_jEEv10PUD_STATUSRKT_EUlvE0_EEvS8_
0000b1b0 W _ZN6UnrollILj58EE4callIZNK4GPIO12pull_up_downIA28_jEEv10PUD_STATUSRKT_EUlvE_EEvS8_
0000b1dc W _ZN6UnrollILj58EE4callIZNK4GPIO12pull_up_downIA28_jEEv10PUD_STATUSRKT_EUlvE0_EEvS8_
0000b158 W _ZN6UnrollILj59EE4callIZNK4GPIO12pull_up_downIA28_jEEv10PUD_STATUSRKT_EUlvE_EEvS8_
0000b184 W _ZN6UnrollILj59EE4callIZNK4GPIO12pull_up_downIA28_jEEv10PUD_STATUSRKT_EUlvE0_EEvS8_
0000c3e8 W _ZN6UnrollILj5EE4callIZNK4GPIO12pull_up_downIA28_jEEv10PUD_STATUSRKT_EUlvE_EEvS8_
0000c414 W _ZN6UnrollILj5EE4callIZNK4GPIO12pull_up_downIA28_jEEv10PUD_STATUSRKT_EUlvE0_EEvS8_
0000b100 W _ZN6UnrollILj60EE4callIZNK4GPIO12pull_up_downIA28_jEEv10PUD_STATUSRKT_EUlvE_EEvS8_
0000b12c W _ZN6UnrollILj60EE4callIZNK4GPIO12pull_up_downIA28_jEEv10PUD_STATUSRKT_EUlvE0_EEvS8_
0000b0a8 W _ZN6UnrollILj61EE4callIZNK4GPIO12pull_up_downIA28_jEEv10PUD_STATUSRKT_EUlvE_EEvS8_
0000b0d4 W _ZN6UnrollILj61EE4callIZNK4GPIO12pull_up_downIA28_jEEv10PUD_STATUSRKT_EUlvE0_EEvS8_
0000b050 W _ZN6UnrollILj62EE4callIZNK4GPIO12pull_up_downIA28_jEEv10PUD_STATUSRKT_EUlvE_EEvS8_
0000b07c W _ZN6UnrollILj62EE4callIZNK4GPIO12pull_up_downIA28_jEEv10PUD_STATUSRKT_EUlvE0_EEvS8_
0000aff8 W _ZN6UnrollILj63EE4callIZNK4GPIO12pull_up_downIA28_jEEv10PUD_STATUSRKT_EUlvE_EEvS8_
0000b024 W _ZN6UnrollILj63EE4callIZNK4GPIO12pull_up_downIA28_jEEv10PUD_STATUSRKT_EUlvE0_EEvS8_
0000afa0 W _ZN6UnrollILj64EE4callIZNK4GPIO12pull_up_downIA28_jEEv10PUD_STATUSRKT_EUlvE_EEvS8_
0000afcc W _ZN6UnrollILj64EE4callIZNK4GPIO12pull_up_downIA28_jEEv10PUD_STATUSRKT_EUlvE0_EEvS8_
0000af48 W _ZN6UnrollILj65EE4callIZNK4GPIO12pull_up_downIA28_jEEv10PUD_STATUSRKT_EUlvE_EEvS8_
0000af74 W _ZN6UnrollILj65EE4callIZNK4GPIO12pull_up_downIA28_jEEv10PUD_STATUSRKT_EUlvE0_EEvS8_
0000aef0 W _ZN6UnrollILj66EE4callIZNK4GPIO12pull_up_downIA28_jEEv10PUD_STATUSRKT_EUlvE_EEvS8_
0000af1c W _ZN6UnrollILj66EE4callIZNK4GPIO12pull_up_downIA28_jEEv10PUD_STATUSRKT_EUlvE0_EEvS8_
0000ae98 W _ZN6UnrollILj67EE4callIZNK4GPIO12pull_up_downIA28_jEEv10PUD_STATUSRKT_EUlvE_EEvS8_
0000aec4 W _ZN6UnrollILj67EE4callIZNK4GPIO12pull_up_downIA28_jEEv10PUD_STATUSRKT_EUlvE0_EEvS8_
0000ae40 W _ZN6UnrollILj68EE4callIZNK4GPIO12pull_up_downIA28_jEEv10PUD_STATUSRKT_EUlvE_EEvS8_
0000ae6c W _ZN6UnrollILj68EE4callIZNK4GPIO12pull_up_downIA28_jEEv10PUD_STATUSRKT_EUlvE0_EEvS8_
0000ade8 W _ZN6UnrollILj69EE4callIZNK4GPIO12pull_up_downIA28_jEEv10PUD_STATUSRKT_EUlvE_EEvS8_
0000ae14 W _ZN6UnrollILj69EE4callIZNK4GPIO12pull_up_downIA28_jEEv10PUD_STATUSRKT_EUlvE0_EEvS8_
0000c390 W _ZN6UnrollILj6EE4callIZNK4GPIO12pull_up_downIA28_jEEv10PUD_STATUSRKT_EUlvE_EEvS8_
0000c3bc W _ZN6UnrollILj6EE4callIZNK4GPIO12pull_up_downIA28_jEEv10PUD_STATUSRKT_EUlvE0_EEvS8_
0000ad90 W _ZN6UnrollILj70EE4callIZNK4GPIO12pull_up_downIA28_jEEv10PUD_STATUSRKT_EUlvE_EEvS8_
0000adbc W _ZN6UnrollILj70EE4callIZNK4GPIO12pull_up_downIA28_jEEv10PUD_STATUSRKT_EUlvE0_EEvS8_
0000ad38 W _ZN6UnrollILj71EE4callIZNK4GPIO12pull_up_downIA28_jEEv10PUD_STATUSRKT_EUlvE_EEvS8_
0000ad64 W _ZN6UnrollILj71EE4callIZNK4GPIO12pull_up_downIA28_jEEv10PUD_STATUSRKT_EUlvE0_EEvS8_
0000ace0 W _ZN6UnrollILj72EE4callIZNK4GPIO12pull_up_downIA28_jEEv10PUD_STATUSRKT_EUlvE_EEvS8_
0000ad0c W _ZN6UnrollILj72EE4callIZNK4GPIO12pull_up_downIA28_jEEv10PUD_STATUSRKT_EUlvE0_EEvS8_
0000ac88 W _ZN6UnrollILj73EE4callIZNK4GPIO12pull_up_downIA28_jEEv10PUD_STATUSRKT_EUlvE_EEvS8_
0000acb4 W _ZN6UnrollILj73EE4callIZNK4GPIO12pull_up_downIA28_jEEv10PUD_STATUSRKT_EUlvE0_EEvS8_
0000ac30 W _ZN6UnrollILj74EE4callIZNK4GPIO12pull_up_downIA28_jEEv10PUD_STATUSRKT_EUlvE_EEvS8_
0000ac5c W _ZN6UnrollILj74EE4callIZNK4GPIO12pull_up_downIA28_jEEv10PUD_STATUSRKT_EUlvE0_EEvS8_
0000abd8 W _ZN6UnrollILj75EE4callIZNK4GPIO12pull_up_downIA28_jEEv10PUD_STATUSRKT_EUlvE_EEvS8_
0000ac04 W _ZN6UnrollILj75EE4callIZNK4GPIO12pull_up_downIA28_jEEv10PUD_STATUSRKT_EUlvE0_EEvS8_
0000ab80 W _ZN6UnrollILj76EE4callIZNK4GPIO12pull_up_downIA28_jEEv10PUD_STATUSRKT_EUlvE_EEvS8_
0000abac W _ZN6UnrollILj76EE4callIZNK4GPIO12pull_up_downIA28_jEEv10PUD_STATUSRKT_EUlvE0_EEvS8_
0000ab28 W _ZN6UnrollILj77EE4callIZNK4GPIO12pull_up_downIA28_jEEv10PUD_STATUSRKT_EUlvE_EEvS8_
0000ab54 W _ZN6UnrollILj77EE4callIZNK4GPIO12pull_up_downIA28_jEEv10PUD_STATUSRKT_EUlvE0_EEvS8_
0000aad0 W _ZN6UnrollILj78EE4callIZNK4GPIO12pull_up_downIA28_jEEv10PUD_STATUSRKT_EUlvE_EEvS8_
0000aafc W _ZN6UnrollILj78EE4callIZNK4GPIO12pull_up_downIA28_jEEv10PUD_STATUSRKT_EUlvE0_EEvS8_
0000aa78 W _ZN6UnrollILj79EE4callIZNK4GPIO12pull_up_downIA28_jEEv10PUD_STATUSRKT_EUlvE_EEvS8_
0000aaa4 W _ZN6UnrollILj79EE4callIZNK4GPIO12pull_up_downIA28_jEEv10PUD_STATUSRKT_EUlvE0_EEvS8_
0000c338 W _ZN6UnrollILj7EE4callIZNK4GPIO12pull_up_downIA28_jEEv10PUD_STATUSRKT_EUlvE_EEvS8_
0000c364 W _ZN6UnrollILj7EE4callIZNK4GPIO12pull_up_downIA28_jEEv10PUD_STATUSRKT_EUlvE0_EEvS8_
0000aa20 W _ZN6UnrollILj80EE4callIZNK4GPIO12pull_up_downIA28_jEEv10PUD_STATUSRKT_EUlvE_EEvS8_
0000aa4c W _ZN6UnrollILj80EE4callIZNK4GPIO12pull_up_downIA28_jEEv10PUD_STATUSRKT_EUlvE0_EEvS8_
0000a9c8 W _ZN6UnrollILj81EE4callIZNK4GPIO12pull_up_downIA28_jEEv10PUD_STATUSRKT_EUlvE_EEvS8_
0000a9f4 W _ZN6UnrollILj81EE4callIZNK4GPIO12pull_up_downIA28_jEEv10PUD_STATUSRKT_EUlvE0_EEvS8_
0000a970 W _ZN6UnrollILj82EE4callIZNK4GPIO12pull_up_downIA28_jEEv10PUD_STATUSRKT_EUlvE_EEvS8_
0000a99c W _ZN6UnrollILj82EE4callIZNK4GPIO12pull_up_downIA28_jEEv10PUD_STATUSRKT_EUlvE0_EEvS8_
0000a918 W _ZN6UnrollILj83EE4callIZNK4GPIO12pull_up_downIA28_jEEv10PUD_STATUSRKT_EUlvE_EEvS8_
0000a944 W _ZN6UnrollILj83EE4callIZNK4GPIO12pull_up_downIA28_jEEv10PUD_STATUSRKT_EUlvE0_EEvS8_
0000a8c0 W _ZN6UnrollILj84EE4callIZNK4GPIO12pull_up_downIA28_jEEv10PUD_STATUSRKT_EUlvE_EEvS8_
0000a8ec W _ZN6UnrollILj84EE4callIZNK4GPIO12pull_up_downIA28_jEEv10PUD_STATUSRKT_EUlvE0_EEvS8_
0000a868 W _ZN6UnrollILj85EE4callIZNK4GPIO12pull_up_downIA28_jEEv10PUD_STATUSRKT_EUlvE_EEvS8_
0000a894 W _ZN6UnrollILj85EE4callIZNK4GPIO12pull_up_downIA28_jEEv10PUD_STATUSRKT_EUlvE0_EEvS8_
0000a810 W _ZN6UnrollILj86EE4callIZNK4GPIO12pull_up_downIA28_jEEv10PUD_STATUSRKT_EUlvE_EEvS8_
0000a83c W _ZN6UnrollILj86EE4callIZNK4GPIO12pull_up_downIA28_jEEv10PUD_STATUSRKT_EUlvE0_EEvS8_
0000a7b8 W _ZN6UnrollILj87EE4callIZNK4GPIO12pull_up_downIA28_jEEv10PUD_STATUSRKT_EUlvE_EEvS8_
0000a7e4 W _ZN6UnrollILj87EE4callIZNK4GPIO12pull_up_downIA28_jEEv10PUD_STATUSRKT_EUlvE0_EEvS8_
0000a760 W _ZN6UnrollILj88EE4callIZNK4GPIO12pull_up_downIA28_jEEv10PUD_STATUSRKT_EUlvE_EEvS8_
0000a78c W _ZN6UnrollILj88EE4callIZNK4GPIO12pull_up_downIA28_jEEv10PUD_STATUSRKT_EUlvE0_EEvS8_
0000a708 W _ZN6UnrollILj89EE4callIZNK4GPIO12pull_up_downIA28_jEEv10PUD_STATUSRKT_EUlvE_EEvS8_
0000a734 W _ZN6UnrollILj89EE4callIZNK4GPIO12pull_up_downIA28_jEEv10PUD_STATUSRKT_EUlvE0_EEvS8_
0000c2e0 W _ZN6UnrollILj8EE4callIZNK4GPIO12pull_up_downIA28_jEEv10PUD_STATUSRKT_EUlvE_EEvS8_
0000c30c W _ZN6UnrollILj8EE4callIZNK4GPIO12pull_up_downIA28_jEEv10PUD_STATUSRKT_EUlvE0_EEvS8_
0000a6b0 W _ZN6UnrollILj90EE4callIZNK4GPIO12pull_up_downIA28_jEEv10PUD_STATUSRKT_EUlvE_EEvS8_
0000a6dc W _ZN6UnrollILj90EE4callIZNK4GPIO12pull_up_downIA28_jEEv10PUD_STATUSRKT_EUlvE0_EEvS8_
0000a658 W _ZN6UnrollILj91EE4callIZNK4GPIO12pull_up_downIA28_jEEv10PUD_STATUSRKT_EUlvE_EEvS8_
0000a684 W _ZN6UnrollILj91EE4callIZNK4GPIO12pull_up_downIA28_jEEv10PUD_STATUSRKT_EUlvE0_EEvS8_
0000a600 W _ZN6UnrollILj92EE4callIZNK4GPIO12pull_up_downIA28_jEEv10PUD_STATUSRKT_EUlvE_EEvS8_
0000a62c W _ZN6UnrollILj92EE4callIZNK4GPIO12pull_up_downIA28_jEEv10PUD_STATUSRKT_EUlvE0_EEvS8_
0000a5a8 W _ZN6UnrollILj93EE4callIZNK4GPIO12pull_up_downIA28_jEEv10PUD_STATUSRKT_EUlvE_EEvS8_
0000a5d4 W _ZN6UnrollILj93EE4callIZNK4GPIO12pull_up_downIA28_jEEv10PUD_STATUSRKT_EUlvE0_EEvS8_
0000a550 W _ZN6UnrollILj94EE4callIZNK4GPIO12pull_up_downIA28_jEEv10PUD_STATUSRKT_EUlvE_EEvS8_
0000a57c W _ZN6UnrollILj94EE4callIZNK4GPIO12pull_up_downIA28_jEEv10PUD_STATUSRKT_EUlvE0_EEvS8_
0000a4f8 W _ZN6UnrollILj95EE4callIZNK4GPIO12pull_up_downIA28_jEEv10PUD_STATUSRKT_EUlvE_EEvS8_
0000a524 W _ZN6UnrollILj95EE4callIZNK4GPIO12pull_up_downIA28_jEEv10PUD_STATUSRKT_EUlvE0_EEvS8_
0000a4a0 W _ZN6UnrollILj96EE4callIZNK4GPIO12pull_up_downIA28_jEEv10PUD_STATUSRKT_EUlvE_EEvS8_
0000a4cc W _ZN6UnrollILj96EE4callIZNK4GPIO12pull_up_downIA28_jEEv10PUD_STATUSRKT_EUlvE0_EEvS8_
0000a448 W _ZN6UnrollILj97EE4callIZNK4GPIO12pull_up_downIA28_jEEv10PUD_STATUSRKT_EUlvE_EEvS8_
0000a474 W _ZN6UnrollILj97EE4callIZNK4GPIO12pull_up_downIA28_jEEv10PUD_STATUSRKT_EUlvE0_EEvS8_
0000a3f0 W _ZN6UnrollILj98EE4callIZNK4GPIO12pull_up_downIA28_jEEv10PUD_STATUSRKT_EUlvE_EEvS8_
0000a41c W _ZN6UnrollILj98EE4callIZNK4GPIO12pull_up_downIA28_jEEv10PUD_STATUSRKT_EUlvE0_EEvS8_
0000a398 W _ZN6UnrollILj99EE4callIZNK4GPIO12pull_up_downIA28_jEEv10PUD_STATUSRKT_EUlvE_EEvS8_
0000a3c4 W _ZN6UnrollILj99EE4callIZNK4GPIO12pull_up_downIA28_jEEv10PUD_STATUSRKT_EUlvE0_EEvS8_
0000c288 W _ZN6UnrollILj9EE4callIZNK4GPIO12pull_up_downIA28_jEEv10PUD_STATUSRKT_EUlvE_EEvS8_
0000c2b4 W _ZN6UnrollILj9EE4callIZNK4GPIO12pull_up_downIA28_jEEv10PUD_STATUSRKT_EUlvE0_EEvS8_
000088d0 W _ZN8GPIO_pin4initEPK4GPIOj
000088ac W _ZNK10Peripheral7addressEv
000082f4 T _ZNK11PWM_channel4dataEm
000082a8 T _ZNK11PWM_channel5rangeEm
00008180 T _ZNK11PWM_channel7controlEbb
000083cc T _ZNK13Clock_manager7controlE12CLOCK_SOURCEb11MASH_FILTER
00008460 T _ZNK13Clock_manager7divisorEtt
00008e4c W _ZNK3PWM3CTLEv
00008ec0 W _ZNK3PWM3DATEj
00008e7c W _ZNK3PWM3RNGEj
000090d8 W _ZNK4GPIO12pull_up_downIA28_jEEv10PUD_STATUSRKT_
00008994 W _ZNK4GPIO5GPCLREj
000089d8 W _ZNK4GPIO5GPLEVEj
00008a1c W _ZNK4GPIO5GPPUDEv
00008950 W _ZNK4GPIO5GPSETEj
00008910 W _ZNK4GPIO6GPFSELEj
00008a50 W _ZNK4GPIO8GPPUDCLKEj
00008f48 W _ZNK5Clock5GPCTLE10CLOCK_NAME
00008fb8 W _ZNK5Clock5GPDIVE10CLOCK_NAME
00008c14 W _ZNK8GPIO_pin15function_selectE12PIN_FUNCTION
00008b24 W _ZNK8GPIO_pin18alternate_functionEj
00008cdc W _ZNK8GPIO_pin3setEv
00008d3c W _ZNK8GPIO_pin5clearEv
00008a94 W _ZNK8GPIO_pin5inputEv
00008d9c W _ZNK8GPIO_pin5levelEv
0000804c T _ZNK8GPIO_pin9pud_clockEb
000103b0 b _ZZ5_sbrkE8heap_end
00009068 W _ZZNK4GPIO12pull_up_downIA28_jEEv10PUD_STATUSRKT_ENKUlvE_clEv
000090a0 W _ZZNK4GPIO12pull_up_downIA28_jEEv10PUD_STATUSRKT_ENKUlvE0_clEv
0000908c W _ZZNK4GPIO12pull_up_downIA28_jEEv10PUD_STATUSRKT_ENUlvE_4_FUNEv
000090c4 W _ZZNK4GPIO12pull_up_downIA28_jEEv10PUD_STATUSRKT_ENUlvE0_4_FUNEv
0000d6c4 T abort
0000deec T cleanup_glue
000103e8 B errno
0000c7c8 t get_eit_entry
0000fb78 d impure_data
0000d6d4 T memcpy
0000d334 t next_unwind_byte
0000d8d8 T raise
0000d188 T restore_core_regs
0000c870 t restore_non_core_regs
0000c738 t search_EIT_table
0000c724 t selfrel_offset31
0000d8e8 T signal
0000c8dc t unwind_phase2
0000c91c t unwind_phase2_forced
0000d38c t unwind_UCB_from_context
