
kernel.elf:     file format elf32-littlearm


Disassembly of section .text:

00008000 <_start>:
    8000:	e3a0d301 	mov	sp, #67108864	; 0x4000000
    8004:	ea001177 	b	c5e8 <_cstartup>

00008008 <_inf_loop>:
    8008:	eafffffe 	b	8008 <_inf_loop>

0000800c <_ZN10PeripheralC1Em>:
    800c:	e52db004 	push	{fp}		; (str fp, [sp, #-4]!)
    8010:	e28db000 	add	fp, sp, #0
    8014:	e24dd00c 	sub	sp, sp, #12
    8018:	e50b0008 	str	r0, [fp, #-8]
    801c:	e50b100c 	str	r1, [fp, #-12]
    8020:	e51b3008 	ldr	r3, [fp, #-8]
    8024:	e3a02000 	mov	r2, #0
    8028:	e5832000 	str	r2, [r3]
    802c:	e51b200c 	ldr	r2, [fp, #-12]
    8030:	e51b3008 	ldr	r3, [fp, #-8]
    8034:	e5832000 	str	r2, [r3]
    8038:	e51b3008 	ldr	r3, [fp, #-8]
    803c:	e1a00003 	mov	r0, r3
    8040:	e28bd000 	add	sp, fp, #0
    8044:	e49db004 	pop	{fp}		; (ldr fp, [sp], #4)
    8048:	e12fff1e 	bx	lr

0000804c <_ZNK8GPIO_pin9pud_clockEb>:
    804c:	e92d4800 	push	{fp, lr}
    8050:	e28db004 	add	fp, sp, #4
    8054:	e24dd010 	sub	sp, sp, #16
    8058:	e50b0010 	str	r0, [fp, #-16]
    805c:	e1a03001 	mov	r3, r1
    8060:	e54b3011 	strb	r3, [fp, #-17]	; 0xffffffef
    8064:	e51b3010 	ldr	r3, [fp, #-16]
    8068:	e5932004 	ldr	r2, [r3, #4]
    806c:	e51b3010 	ldr	r3, [fp, #-16]
    8070:	e5933000 	ldr	r3, [r3]
    8074:	e1a032a3 	lsr	r3, r3, #5
    8078:	e1a01003 	mov	r1, r3
    807c:	e1a00002 	mov	r0, r2
    8080:	eb000272 	bl	8a50 <_ZNK4GPIO8GPPUDCLKEj>
    8084:	e50b0008 	str	r0, [fp, #-8]
    8088:	e55b3011 	ldrb	r3, [fp, #-17]	; 0xffffffef
    808c:	e3530000 	cmp	r3, #0
    8090:	0a000009 	beq	80bc <_ZNK8GPIO_pin9pud_clockEb+0x70>
    8094:	e51b3008 	ldr	r3, [fp, #-8]
    8098:	e5933000 	ldr	r3, [r3]
    809c:	e51b2010 	ldr	r2, [fp, #-16]
    80a0:	e5922000 	ldr	r2, [r2]
    80a4:	e3a01001 	mov	r1, #1
    80a8:	e1a02211 	lsl	r2, r1, r2
    80ac:	e1832002 	orr	r2, r3, r2
    80b0:	e51b3008 	ldr	r3, [fp, #-8]
    80b4:	e5832000 	str	r2, [r3]
    80b8:	ea000009 	b	80e4 <_ZNK8GPIO_pin9pud_clockEb+0x98>
    80bc:	e51b3008 	ldr	r3, [fp, #-8]
    80c0:	e5933000 	ldr	r3, [r3]
    80c4:	e51b2010 	ldr	r2, [fp, #-16]
    80c8:	e5922000 	ldr	r2, [r2]
    80cc:	e3a01001 	mov	r1, #1
    80d0:	e1a02211 	lsl	r2, r1, r2
    80d4:	e1e02002 	mvn	r2, r2
    80d8:	e0022003 	and	r2, r2, r3
    80dc:	e51b3008 	ldr	r3, [fp, #-8]
    80e0:	e5832000 	str	r2, [r3]
    80e4:	e51b3010 	ldr	r3, [fp, #-16]
    80e8:	e1a00003 	mov	r0, r3
    80ec:	e24bd004 	sub	sp, fp, #4
    80f0:	e8bd8800 	pop	{fp, pc}

000080f4 <_ZN4GPIOC1Ev>:
    80f4:	e92d4800 	push	{fp, lr}
    80f8:	e28db004 	add	fp, sp, #4
    80fc:	e24dd010 	sub	sp, sp, #16
    8100:	e50b0010 	str	r0, [fp, #-16]
    8104:	e51b3010 	ldr	r3, [fp, #-16]
    8108:	e3a01000 	mov	r1, #0
    810c:	e3431f20 	movt	r1, #16160	; 0x3f20
    8110:	e1a00003 	mov	r0, r3
    8114:	ebffffbc 	bl	800c <_ZN10PeripheralC1Em>
    8118:	e51b3010 	ldr	r3, [fp, #-16]
    811c:	e2832004 	add	r2, r3, #4
    8120:	e51b3010 	ldr	r3, [fp, #-16]
    8124:	e58321b4 	str	r2, [r3, #436]	; 0x1b4
    8128:	e3a03000 	mov	r3, #0
    812c:	e50b3008 	str	r3, [fp, #-8]
    8130:	e51b3008 	ldr	r3, [fp, #-8]
    8134:	e3530036 	cmp	r3, #54	; 0x36
    8138:	0a00000c 	beq	8170 <_ZN4GPIOC1Ev+0x7c>
    813c:	e51b3008 	ldr	r3, [fp, #-8]
    8140:	e1a03183 	lsl	r3, r3, #3
    8144:	e51b2010 	ldr	r2, [fp, #-16]
    8148:	e0823003 	add	r3, r2, r3
    814c:	e2833004 	add	r3, r3, #4
    8150:	e51b2008 	ldr	r2, [fp, #-8]
    8154:	e51b1010 	ldr	r1, [fp, #-16]
    8158:	e1a00003 	mov	r0, r3
    815c:	eb0001db 	bl	88d0 <_ZN8GPIO_pin4initEPK4GPIOj>
    8160:	e51b3008 	ldr	r3, [fp, #-8]
    8164:	e2833001 	add	r3, r3, #1
    8168:	e50b3008 	str	r3, [fp, #-8]
    816c:	eaffffef 	b	8130 <_ZN4GPIOC1Ev+0x3c>
    8170:	e51b3010 	ldr	r3, [fp, #-16]
    8174:	e1a00003 	mov	r0, r3
    8178:	e24bd004 	sub	sp, fp, #4
    817c:	e8bd8800 	pop	{fp, pc}

00008180 <_ZNK11PWM_channel7controlEbb>:
    8180:	e92d4800 	push	{fp, lr}
    8184:	e28db004 	add	fp, sp, #4
    8188:	e24dd010 	sub	sp, sp, #16
    818c:	e50b0010 	str	r0, [fp, #-16]
    8190:	e1a03001 	mov	r3, r1
    8194:	e54b3011 	strb	r3, [fp, #-17]	; 0xffffffef
    8198:	e1a03002 	mov	r3, r2
    819c:	e54b3012 	strb	r3, [fp, #-18]	; 0xffffffee
    81a0:	e51b3010 	ldr	r3, [fp, #-16]
    81a4:	e5933004 	ldr	r3, [r3, #4]
    81a8:	e1a00003 	mov	r0, r3
    81ac:	eb000326 	bl	8e4c <_ZNK3PWM3CTLEv>
    81b0:	e1a03000 	mov	r3, r0
    81b4:	e5933000 	ldr	r3, [r3]
    81b8:	e50b3008 	str	r3, [fp, #-8]
    81bc:	e55b3011 	ldrb	r3, [fp, #-17]	; 0xffffffef
    81c0:	e3530000 	cmp	r3, #0
    81c4:	0a000009 	beq	81f0 <_ZNK11PWM_channel7controlEbb+0x70>
    81c8:	e51b3010 	ldr	r3, [fp, #-16]
    81cc:	e5933000 	ldr	r3, [r3]
    81d0:	e1a03183 	lsl	r3, r3, #3
    81d4:	e3a02001 	mov	r2, #1
    81d8:	e1a03312 	lsl	r3, r2, r3
    81dc:	e1a02003 	mov	r2, r3
    81e0:	e51b3008 	ldr	r3, [fp, #-8]
    81e4:	e1833002 	orr	r3, r3, r2
    81e8:	e50b3008 	str	r3, [fp, #-8]
    81ec:	ea000009 	b	8218 <_ZNK11PWM_channel7controlEbb+0x98>
    81f0:	e51b3010 	ldr	r3, [fp, #-16]
    81f4:	e5933000 	ldr	r3, [r3]
    81f8:	e1a03183 	lsl	r3, r3, #3
    81fc:	e3a02001 	mov	r2, #1
    8200:	e1a03312 	lsl	r3, r2, r3
    8204:	e1e03003 	mvn	r3, r3
    8208:	e1a02003 	mov	r2, r3
    820c:	e51b3008 	ldr	r3, [fp, #-8]
    8210:	e0033002 	and	r3, r3, r2
    8214:	e50b3008 	str	r3, [fp, #-8]
    8218:	e55b3012 	ldrb	r3, [fp, #-18]	; 0xffffffee
    821c:	e3530000 	cmp	r3, #0
    8220:	0a00000a 	beq	8250 <_ZNK11PWM_channel7controlEbb+0xd0>
    8224:	e51b3010 	ldr	r3, [fp, #-16]
    8228:	e5933000 	ldr	r3, [r3]
    822c:	e1a03183 	lsl	r3, r3, #3
    8230:	e2833007 	add	r3, r3, #7
    8234:	e3a02001 	mov	r2, #1
    8238:	e1a03312 	lsl	r3, r2, r3
    823c:	e1a02003 	mov	r2, r3
    8240:	e51b3008 	ldr	r3, [fp, #-8]
    8244:	e1833002 	orr	r3, r3, r2
    8248:	e50b3008 	str	r3, [fp, #-8]
    824c:	ea00000a 	b	827c <_ZNK11PWM_channel7controlEbb+0xfc>
    8250:	e51b3010 	ldr	r3, [fp, #-16]
    8254:	e5933000 	ldr	r3, [r3]
    8258:	e1a03183 	lsl	r3, r3, #3
    825c:	e2833007 	add	r3, r3, #7
    8260:	e3a02001 	mov	r2, #1
    8264:	e1a03312 	lsl	r3, r2, r3
    8268:	e1e03003 	mvn	r3, r3
    826c:	e1a02003 	mov	r2, r3
    8270:	e51b3008 	ldr	r3, [fp, #-8]
    8274:	e0033002 	and	r3, r3, r2
    8278:	e50b3008 	str	r3, [fp, #-8]
    827c:	e51b3010 	ldr	r3, [fp, #-16]
    8280:	e5933004 	ldr	r3, [r3, #4]
    8284:	e1a00003 	mov	r0, r3
    8288:	eb0002ef 	bl	8e4c <_ZNK3PWM3CTLEv>
    828c:	e1a02000 	mov	r2, r0
    8290:	e51b3008 	ldr	r3, [fp, #-8]
    8294:	e5823000 	str	r3, [r2]
    8298:	e51b3010 	ldr	r3, [fp, #-16]
    829c:	e1a00003 	mov	r0, r3
    82a0:	e24bd004 	sub	sp, fp, #4
    82a4:	e8bd8800 	pop	{fp, pc}

000082a8 <_ZNK11PWM_channel5rangeEm>:
    82a8:	e92d4800 	push	{fp, lr}
    82ac:	e28db004 	add	fp, sp, #4
    82b0:	e24dd008 	sub	sp, sp, #8
    82b4:	e50b0008 	str	r0, [fp, #-8]
    82b8:	e50b100c 	str	r1, [fp, #-12]
    82bc:	e51b3008 	ldr	r3, [fp, #-8]
    82c0:	e5932004 	ldr	r2, [r3, #4]
    82c4:	e51b3008 	ldr	r3, [fp, #-8]
    82c8:	e5933000 	ldr	r3, [r3]
    82cc:	e1a01003 	mov	r1, r3
    82d0:	e1a00002 	mov	r0, r2
    82d4:	eb0002e8 	bl	8e7c <_ZNK3PWM3RNGEj>
    82d8:	e1a02000 	mov	r2, r0
    82dc:	e51b300c 	ldr	r3, [fp, #-12]
    82e0:	e5823000 	str	r3, [r2]
    82e4:	e51b3008 	ldr	r3, [fp, #-8]
    82e8:	e1a00003 	mov	r0, r3
    82ec:	e24bd004 	sub	sp, fp, #4
    82f0:	e8bd8800 	pop	{fp, pc}

000082f4 <_ZNK11PWM_channel4dataEm>:
    82f4:	e92d4800 	push	{fp, lr}
    82f8:	e28db004 	add	fp, sp, #4
    82fc:	e24dd008 	sub	sp, sp, #8
    8300:	e50b0008 	str	r0, [fp, #-8]
    8304:	e50b100c 	str	r1, [fp, #-12]
    8308:	e51b3008 	ldr	r3, [fp, #-8]
    830c:	e5932004 	ldr	r2, [r3, #4]
    8310:	e51b3008 	ldr	r3, [fp, #-8]
    8314:	e5933000 	ldr	r3, [r3]
    8318:	e1a01003 	mov	r1, r3
    831c:	e1a00002 	mov	r0, r2
    8320:	eb0002e6 	bl	8ec0 <_ZNK3PWM3DATEj>
    8324:	e1a02000 	mov	r2, r0
    8328:	e51b300c 	ldr	r3, [fp, #-12]
    832c:	e5823000 	str	r3, [r2]
    8330:	e51b3008 	ldr	r3, [fp, #-8]
    8334:	e1a00003 	mov	r0, r3
    8338:	e24bd004 	sub	sp, fp, #4
    833c:	e8bd8800 	pop	{fp, pc}

00008340 <_ZN3PWMC1Ev>:
    8340:	e92d4800 	push	{fp, lr}
    8344:	e28db004 	add	fp, sp, #4
    8348:	e24dd010 	sub	sp, sp, #16
    834c:	e50b0010 	str	r0, [fp, #-16]
    8350:	e51b3010 	ldr	r3, [fp, #-16]
    8354:	e3a01903 	mov	r1, #49152	; 0xc000
    8358:	e3431f20 	movt	r1, #16160	; 0x3f20
    835c:	e1a00003 	mov	r0, r3
    8360:	ebffff29 	bl	800c <_ZN10PeripheralC1Em>
    8364:	e51b3010 	ldr	r3, [fp, #-16]
    8368:	e2832004 	add	r2, r3, #4
    836c:	e51b3010 	ldr	r3, [fp, #-16]
    8370:	e5832014 	str	r2, [r3, #20]
    8374:	e3a03000 	mov	r3, #0
    8378:	e50b3008 	str	r3, [fp, #-8]
    837c:	e51b3008 	ldr	r3, [fp, #-8]
    8380:	e3530002 	cmp	r3, #2
    8384:	0a00000c 	beq	83bc <_ZN3PWMC1Ev+0x7c>
    8388:	e51b3008 	ldr	r3, [fp, #-8]
    838c:	e1a03183 	lsl	r3, r3, #3
    8390:	e51b2010 	ldr	r2, [fp, #-16]
    8394:	e0823003 	add	r3, r2, r3
    8398:	e2833004 	add	r3, r3, #4
    839c:	e51b2008 	ldr	r2, [fp, #-8]
    83a0:	e51b1010 	ldr	r1, [fp, #-16]
    83a4:	e1a00003 	mov	r0, r3
    83a8:	eb000297 	bl	8e0c <_ZN11PWM_channel4initEPK3PWMj>
    83ac:	e51b3008 	ldr	r3, [fp, #-8]
    83b0:	e2833001 	add	r3, r3, #1
    83b4:	e50b3008 	str	r3, [fp, #-8]
    83b8:	eaffffef 	b	837c <_ZN3PWMC1Ev+0x3c>
    83bc:	e51b3010 	ldr	r3, [fp, #-16]
    83c0:	e1a00003 	mov	r0, r3
    83c4:	e24bd004 	sub	sp, fp, #4
    83c8:	e8bd8800 	pop	{fp, pc}

000083cc <_ZNK13Clock_manager7controlE12CLOCK_SOURCEb11MASH_FILTER>:
    83cc:	e92d4800 	push	{fp, lr}
    83d0:	e28db004 	add	fp, sp, #4
    83d4:	e24dd010 	sub	sp, sp, #16
    83d8:	e50b0010 	str	r0, [fp, #-16]
    83dc:	e1a00001 	mov	r0, r1
    83e0:	e1a01002 	mov	r1, r2
    83e4:	e1a02003 	mov	r2, r3
    83e8:	e1a03000 	mov	r3, r0
    83ec:	e54b3011 	strb	r3, [fp, #-17]	; 0xffffffef
    83f0:	e1a03001 	mov	r3, r1
    83f4:	e54b3012 	strb	r3, [fp, #-18]	; 0xffffffee
    83f8:	e1a03002 	mov	r3, r2
    83fc:	e54b3013 	strb	r3, [fp, #-19]	; 0xffffffed
    8400:	e55b3011 	ldrb	r3, [fp, #-17]	; 0xffffffef
    8404:	e203200f 	and	r2, r3, #15
    8408:	e55b3012 	ldrb	r3, [fp, #-18]	; 0xffffffee
    840c:	e1a03203 	lsl	r3, r3, #4
    8410:	e1822003 	orr	r2, r2, r3
    8414:	e55b3013 	ldrb	r3, [fp, #-19]	; 0xffffffed
    8418:	e1a03483 	lsl	r3, r3, #9
    841c:	e1823003 	orr	r3, r2, r3
    8420:	e383345a 	orr	r3, r3, #1509949440	; 0x5a000000
    8424:	e50b3008 	str	r3, [fp, #-8]
    8428:	e51b3010 	ldr	r3, [fp, #-16]
    842c:	e5932004 	ldr	r2, [r3, #4]
    8430:	e51b3010 	ldr	r3, [fp, #-16]
    8434:	e5d33000 	ldrb	r3, [r3]
    8438:	e1a01003 	mov	r1, r3
    843c:	e1a00002 	mov	r0, r2
    8440:	eb0002c0 	bl	8f48 <_ZNK5Clock5GPCTLE10CLOCK_NAME>
    8444:	e1a02000 	mov	r2, r0
    8448:	e51b3008 	ldr	r3, [fp, #-8]
    844c:	e5823000 	str	r3, [r2]
    8450:	e51b3010 	ldr	r3, [fp, #-16]
    8454:	e1a00003 	mov	r0, r3
    8458:	e24bd004 	sub	sp, fp, #4
    845c:	e8bd8800 	pop	{fp, pc}

00008460 <_ZNK13Clock_manager7divisorEtt>:
    8460:	e92d4800 	push	{fp, lr}
    8464:	e28db004 	add	fp, sp, #4
    8468:	e24dd010 	sub	sp, sp, #16
    846c:	e50b0010 	str	r0, [fp, #-16]
    8470:	e1a03001 	mov	r3, r1
    8474:	e14b31b2 	strh	r3, [fp, #-18]	; 0xffffffee
    8478:	e1a03002 	mov	r3, r2
    847c:	e14b31b4 	strh	r3, [fp, #-20]	; 0xffffffec
    8480:	e15b31b2 	ldrh	r3, [fp, #-18]	; 0xffffffee
    8484:	e7eb3053 	ubfx	r3, r3, #0, #12
    8488:	e14b31b2 	strh	r3, [fp, #-18]	; 0xffffffee
    848c:	e15b31b4 	ldrh	r3, [fp, #-20]	; 0xffffffec
    8490:	e7eb3053 	ubfx	r3, r3, #0, #12
    8494:	e14b31b4 	strh	r3, [fp, #-20]	; 0xffffffec
    8498:	e15b31b2 	ldrh	r3, [fp, #-18]	; 0xffffffee
    849c:	e1a02603 	lsl	r2, r3, #12
    84a0:	e15b31b4 	ldrh	r3, [fp, #-20]	; 0xffffffec
    84a4:	e1823003 	orr	r3, r2, r3
    84a8:	e383345a 	orr	r3, r3, #1509949440	; 0x5a000000
    84ac:	e50b3008 	str	r3, [fp, #-8]
    84b0:	e51b3010 	ldr	r3, [fp, #-16]
    84b4:	e5932004 	ldr	r2, [r3, #4]
    84b8:	e51b3010 	ldr	r3, [fp, #-16]
    84bc:	e5d33000 	ldrb	r3, [r3]
    84c0:	e1a01003 	mov	r1, r3
    84c4:	e1a00002 	mov	r0, r2
    84c8:	eb0002ba 	bl	8fb8 <_ZNK5Clock5GPDIVE10CLOCK_NAME>
    84cc:	e1a02000 	mov	r2, r0
    84d0:	e51b3008 	ldr	r3, [fp, #-8]
    84d4:	e5823000 	str	r3, [r2]
    84d8:	e51b3010 	ldr	r3, [fp, #-16]
    84dc:	e1a00003 	mov	r0, r3
    84e0:	e24bd004 	sub	sp, fp, #4
    84e4:	e8bd8800 	pop	{fp, pc}

000084e8 <_ZN5ClockC1Ev>:
    84e8:	e92d4800 	push	{fp, lr}
    84ec:	e28db004 	add	fp, sp, #4
    84f0:	e24dd010 	sub	sp, sp, #16
    84f4:	e50b0010 	str	r0, [fp, #-16]
    84f8:	e51b3010 	ldr	r3, [fp, #-16]
    84fc:	e3a01a01 	mov	r1, #4096	; 0x1000
    8500:	e3431f10 	movt	r1, #16144	; 0x3f10
    8504:	e1a00003 	mov	r0, r3
    8508:	ebfffebf 	bl	800c <_ZN10PeripheralC1Em>
    850c:	e51b3010 	ldr	r3, [fp, #-16]
    8510:	e2832004 	add	r2, r3, #4
    8514:	e51b3010 	ldr	r3, [fp, #-16]
    8518:	e5832024 	str	r2, [r3, #36]	; 0x24
    851c:	e3a03000 	mov	r3, #0
    8520:	e50b3008 	str	r3, [fp, #-8]
    8524:	e51b3008 	ldr	r3, [fp, #-8]
    8528:	e3530004 	cmp	r3, #4
    852c:	0a00000d 	beq	8568 <_ZN5ClockC1Ev+0x80>
    8530:	e51b3008 	ldr	r3, [fp, #-8]
    8534:	e1a03183 	lsl	r3, r3, #3
    8538:	e51b2010 	ldr	r2, [fp, #-16]
    853c:	e0823003 	add	r3, r2, r3
    8540:	e2833004 	add	r3, r3, #4
    8544:	e51b2008 	ldr	r2, [fp, #-8]
    8548:	e6ef2072 	uxtb	r2, r2
    854c:	e51b1010 	ldr	r1, [fp, #-16]
    8550:	e1a00003 	mov	r0, r3
    8554:	eb00026a 	bl	8f04 <_ZN13Clock_manager4initEPK5Clock10CLOCK_NAME>
    8558:	e51b3008 	ldr	r3, [fp, #-8]
    855c:	e2833001 	add	r3, r3, #1
    8560:	e50b3008 	str	r3, [fp, #-8]
    8564:	eaffffee 	b	8524 <_ZN5ClockC1Ev+0x3c>
    8568:	e51b3010 	ldr	r3, [fp, #-16]
    856c:	e1a00003 	mov	r0, r3
    8570:	e24bd004 	sub	sp, fp, #4
    8574:	e8bd8800 	pop	{fp, pc}

00008578 <_ZN5TimerC1Ev>:
    8578:	e92d4800 	push	{fp, lr}
    857c:	e28db004 	add	fp, sp, #4
    8580:	e24dd010 	sub	sp, sp, #16
    8584:	e50b0010 	str	r0, [fp, #-16]
    8588:	e51b3010 	ldr	r3, [fp, #-16]
    858c:	e3a01a03 	mov	r1, #12288	; 0x3000
    8590:	e3431f00 	movt	r1, #16128	; 0x3f00
    8594:	e1a00003 	mov	r0, r3
    8598:	ebfffe9b 	bl	800c <_ZN10PeripheralC1Em>
    859c:	e51b3010 	ldr	r3, [fp, #-16]
    85a0:	e2832004 	add	r2, r3, #4
    85a4:	e51b3010 	ldr	r3, [fp, #-16]
    85a8:	e5832024 	str	r2, [r3, #36]	; 0x24
    85ac:	e3a03000 	mov	r3, #0
    85b0:	e50b3008 	str	r3, [fp, #-8]
    85b4:	e51b3008 	ldr	r3, [fp, #-8]
    85b8:	e3530004 	cmp	r3, #4
    85bc:	0a00000c 	beq	85f4 <_ZN5TimerC1Ev+0x7c>
    85c0:	e51b3008 	ldr	r3, [fp, #-8]
    85c4:	e1a03183 	lsl	r3, r3, #3
    85c8:	e51b2010 	ldr	r2, [fp, #-16]
    85cc:	e0823003 	add	r3, r2, r3
    85d0:	e2833004 	add	r3, r3, #4
    85d4:	e51b2008 	ldr	r2, [fp, #-8]
    85d8:	e51b1010 	ldr	r1, [fp, #-16]
    85dc:	e1a00003 	mov	r0, r3
    85e0:	eb000290 	bl	9028 <_ZN13Timer_channel4initEPK5Timerj>
    85e4:	e51b3008 	ldr	r3, [fp, #-8]
    85e8:	e2833001 	add	r3, r3, #1
    85ec:	e50b3008 	str	r3, [fp, #-8]
    85f0:	eaffffef 	b	85b4 <_ZN5TimerC1Ev+0x3c>
    85f4:	e51b3010 	ldr	r3, [fp, #-16]
    85f8:	e1a00003 	mov	r0, r3
    85fc:	e24bd004 	sub	sp, fp, #4
    8600:	e8bd8800 	pop	{fp, pc}

00008604 <_Z10test_clockv>:
    8604:	e92d4800 	push	{fp, lr}
    8608:	e28db004 	add	fp, sp, #4
    860c:	e24dde1e 	sub	sp, sp, #480	; 0x1e0
    8610:	e24b3f6f 	sub	r3, fp, #444	; 0x1bc
    8614:	e1a00003 	mov	r0, r3
    8618:	ebfffeb5 	bl	80f4 <_ZN4GPIOC1Ev>
    861c:	e51b3008 	ldr	r3, [fp, #-8]
    8620:	e2833020 	add	r3, r3, #32
    8624:	e3a01000 	mov	r1, #0
    8628:	e1a00003 	mov	r0, r3
    862c:	eb00013c 	bl	8b24 <_ZNK8GPIO_pin18alternate_functionEj>
    8630:	e24b3f79 	sub	r3, fp, #484	; 0x1e4
    8634:	e1a00003 	mov	r0, r3
    8638:	ebffffaa 	bl	84e8 <_ZN5ClockC1Ev>
    863c:	e51b01c0 	ldr	r0, [fp, #-448]	; 0xfffffe40
    8640:	e3a03000 	mov	r3, #0
    8644:	e3a02001 	mov	r2, #1
    8648:	e3a01006 	mov	r1, #6
    864c:	ebffff5e 	bl	83cc <_ZNK13Clock_manager7controlE12CLOCK_SOURCEb11MASH_FILTER>
    8650:	e51b31c0 	ldr	r3, [fp, #-448]	; 0xfffffe40
    8654:	e3a02000 	mov	r2, #0
    8658:	e3a0100c 	mov	r1, #12
    865c:	e1a00003 	mov	r0, r3
    8660:	ebffff7e 	bl	8460 <_ZNK13Clock_manager7divisorEtt>
    8664:	e3a03000 	mov	r3, #0
    8668:	e1a00003 	mov	r0, r3
    866c:	e24bd004 	sub	sp, fp, #4
    8670:	e8bd8800 	pop	{fp, pc}

00008674 <_Z8test_pwmv>:
    8674:	e92d4800 	push	{fp, lr}
    8678:	e28db004 	add	fp, sp, #4
    867c:	e24dde21 	sub	sp, sp, #528	; 0x210
    8680:	e24b3f73 	sub	r3, fp, #460	; 0x1cc
    8684:	e1a00003 	mov	r0, r3
    8688:	ebfffe99 	bl	80f4 <_ZN4GPIOC1Ev>
    868c:	e51b3018 	ldr	r3, [fp, #-24]	; 0xffffffe8
    8690:	e2833098 	add	r3, r3, #152	; 0x98
    8694:	e3a01005 	mov	r1, #5
    8698:	e1a00003 	mov	r0, r3
    869c:	eb000120 	bl	8b24 <_ZNK8GPIO_pin18alternate_functionEj>
    86a0:	e24b3f7d 	sub	r3, fp, #500	; 0x1f4
    86a4:	e1a00003 	mov	r0, r3
    86a8:	ebffff8e 	bl	84e8 <_ZN5ClockC1Ev>
    86ac:	e51b31d0 	ldr	r3, [fp, #-464]	; 0xfffffe30
    86b0:	e2830018 	add	r0, r3, #24
    86b4:	e3a03000 	mov	r3, #0
    86b8:	e3a02001 	mov	r2, #1
    86bc:	e3a01001 	mov	r1, #1
    86c0:	ebffff41 	bl	83cc <_ZNK13Clock_manager7controlE12CLOCK_SOURCEb11MASH_FILTER>
    86c4:	e51b31d0 	ldr	r3, [fp, #-464]	; 0xfffffe30
    86c8:	e2833018 	add	r3, r3, #24
    86cc:	e3a02000 	mov	r2, #0
    86d0:	e3a01002 	mov	r1, #2
    86d4:	e1a00003 	mov	r0, r3
    86d8:	ebffff60 	bl	8460 <_ZNK13Clock_manager7divisorEtt>
    86dc:	e24b3f83 	sub	r3, fp, #524	; 0x20c
    86e0:	e1a00003 	mov	r0, r3
    86e4:	ebffff15 	bl	8340 <_ZN3PWMC1Ev>
    86e8:	e51b21f8 	ldr	r2, [fp, #-504]	; 0xfffffe08
    86ec:	e24b3f85 	sub	r3, fp, #532	; 0x214
    86f0:	e2822008 	add	r2, r2, #8
    86f4:	e8920003 	ldm	r2, {r0, r1}
    86f8:	e8830003 	stm	r3, {r0, r1}
    86fc:	e24b3f85 	sub	r3, fp, #532	; 0x214
    8700:	e3a02001 	mov	r2, #1
    8704:	e3a01001 	mov	r1, #1
    8708:	e1a00003 	mov	r0, r3
    870c:	ebfffe9b 	bl	8180 <_ZNK11PWM_channel7controlEbb>
    8710:	e3a03b01 	mov	r3, #1024	; 0x400
    8714:	e50b3014 	str	r3, [fp, #-20]	; 0xffffffec
    8718:	e3a03000 	mov	r3, #0
    871c:	e50b3008 	str	r3, [fp, #-8]
    8720:	e24b3f85 	sub	r3, fp, #532	; 0x214
    8724:	e51b1014 	ldr	r1, [fp, #-20]	; 0xffffffec
    8728:	e1a00003 	mov	r0, r3
    872c:	ebfffedd 	bl	82a8 <_ZNK11PWM_channel5rangeEm>
    8730:	e24b3f85 	sub	r3, fp, #532	; 0x214
    8734:	e51b1008 	ldr	r1, [fp, #-8]
    8738:	e1a00003 	mov	r0, r3
    873c:	ebfffeec 	bl	82f4 <_ZNK11PWM_channel4dataEm>
    8740:	e3a03001 	mov	r3, #1
    8744:	e54b3009 	strb	r3, [fp, #-9]
    8748:	e51b3008 	ldr	r3, [fp, #-8]
    874c:	e3530000 	cmp	r3, #0
    8750:	1a000001 	bne	875c <_Z8test_pwmv+0xe8>
    8754:	e3a03001 	mov	r3, #1
    8758:	e54b3009 	strb	r3, [fp, #-9]
    875c:	e51b2008 	ldr	r2, [fp, #-8]
    8760:	e51b3014 	ldr	r3, [fp, #-20]	; 0xffffffec
    8764:	e1520003 	cmp	r2, r3
    8768:	1a000001 	bne	8774 <_Z8test_pwmv+0x100>
    876c:	e3a03000 	mov	r3, #0
    8770:	e54b3009 	strb	r3, [fp, #-9]
    8774:	e55b3009 	ldrb	r3, [fp, #-9]
    8778:	e3530000 	cmp	r3, #0
    877c:	0a000003 	beq	8790 <_Z8test_pwmv+0x11c>
    8780:	e51b3008 	ldr	r3, [fp, #-8]
    8784:	e2833001 	add	r3, r3, #1
    8788:	e50b3008 	str	r3, [fp, #-8]
    878c:	ea000002 	b	879c <_Z8test_pwmv+0x128>
    8790:	e51b3008 	ldr	r3, [fp, #-8]
    8794:	e2433001 	sub	r3, r3, #1
    8798:	e50b3008 	str	r3, [fp, #-8]
    879c:	e24b3f85 	sub	r3, fp, #532	; 0x214
    87a0:	e51b1008 	ldr	r1, [fp, #-8]
    87a4:	e1a00003 	mov	r0, r3
    87a8:	ebfffed1 	bl	82f4 <_ZNK11PWM_channel4dataEm>
    87ac:	e3a03000 	mov	r3, #0
    87b0:	e50b3010 	str	r3, [fp, #-16]
    87b4:	e51b3010 	ldr	r3, [fp, #-16]
    87b8:	e3022710 	movw	r2, #10000	; 0x2710
    87bc:	e1530002 	cmp	r3, r2
    87c0:	0affffe0 	beq	8748 <_Z8test_pwmv+0xd4>
    87c4:	e51b3010 	ldr	r3, [fp, #-16]
    87c8:	e2833001 	add	r3, r3, #1
    87cc:	e50b3010 	str	r3, [fp, #-16]
    87d0:	eafffff7 	b	87b4 <_Z8test_pwmv+0x140>

000087d4 <_Z9test_gpiov>:
    87d4:	e92d4800 	push	{fp, lr}
    87d8:	e28db004 	add	fp, sp, #4
    87dc:	e24ddf8a 	sub	sp, sp, #552	; 0x228
    87e0:	e24b3f6f 	sub	r3, fp, #444	; 0x1bc
    87e4:	e1a00003 	mov	r0, r3
    87e8:	ebfffe41 	bl	80f4 <_ZN4GPIOC1Ev>
    87ec:	e30e3290 	movw	r3, #58000	; 0xe290
    87f0:	e3403000 	movt	r3, #0
    87f4:	e24b0f8b 	sub	r0, fp, #556	; 0x22c
    87f8:	e1a01003 	mov	r1, r3
    87fc:	e3a03070 	mov	r3, #112	; 0x70
    8800:	e1a02003 	mov	r2, r3
    8804:	fa0013b2 	blx	d6d4 <memcpy>
    8808:	e24b2f8b 	sub	r2, fp, #556	; 0x22c
    880c:	e24b3f6f 	sub	r3, fp, #444	; 0x1bc
    8810:	e3a01002 	mov	r1, #2
    8814:	e1a00003 	mov	r0, r3
    8818:	eb00022e 	bl	90d8 <_ZNK4GPIO12pull_up_downIA28_jEEv10PUD_STATUSRKT_>
    881c:	e51b3008 	ldr	r3, [fp, #-8]
    8820:	e2833020 	add	r3, r3, #32
    8824:	e3a01001 	mov	r1, #1
    8828:	e1a00003 	mov	r0, r3
    882c:	eb0000f8 	bl	8c14 <_ZNK8GPIO_pin15function_selectE12PIN_FUNCTION>
    8830:	e51b3008 	ldr	r3, [fp, #-8]
    8834:	e2833038 	add	r3, r3, #56	; 0x38
    8838:	e1a00003 	mov	r0, r3
    883c:	eb000094 	bl	8a94 <_ZNK8GPIO_pin5inputEv>
    8840:	e51b3008 	ldr	r3, [fp, #-8]
    8844:	e28330d8 	add	r3, r3, #216	; 0xd8
    8848:	e1a00003 	mov	r0, r3
    884c:	eb000152 	bl	8d9c <_ZNK8GPIO_pin5levelEv>
    8850:	e1a03000 	mov	r3, r0
    8854:	e3530000 	cmp	r3, #0
    8858:	0a000004 	beq	8870 <_Z9test_gpiov+0x9c>
    885c:	e51b3008 	ldr	r3, [fp, #-8]
    8860:	e2833020 	add	r3, r3, #32
    8864:	e1a00003 	mov	r0, r3
    8868:	eb00011b 	bl	8cdc <_ZNK8GPIO_pin3setEv>
    886c:	eafffff3 	b	8840 <_Z9test_gpiov+0x6c>
    8870:	e51b3008 	ldr	r3, [fp, #-8]
    8874:	e2833020 	add	r3, r3, #32
    8878:	e1a00003 	mov	r0, r3
    887c:	eb00012e 	bl	8d3c <_ZNK8GPIO_pin5clearEv>
    8880:	eaffffee 	b	8840 <_Z9test_gpiov+0x6c>

00008884 <_Z11kernel_mainjjj>:
    8884:	e92d4800 	push	{fp, lr}
    8888:	e28db004 	add	fp, sp, #4
    888c:	e24dd010 	sub	sp, sp, #16
    8890:	e50b0008 	str	r0, [fp, #-8]
    8894:	e50b100c 	str	r1, [fp, #-12]
    8898:	e50b2010 	str	r2, [fp, #-16]
    889c:	ebffff74 	bl	8674 <_Z8test_pwmv>
    88a0:	e320f000 	nop	{0}
    88a4:	e24bd004 	sub	sp, fp, #4
    88a8:	e8bd8800 	pop	{fp, pc}

000088ac <_ZNK10Peripheral7addressEv>:
    88ac:	e52db004 	push	{fp}		; (str fp, [sp, #-4]!)
    88b0:	e28db000 	add	fp, sp, #0
    88b4:	e24dd00c 	sub	sp, sp, #12
    88b8:	e50b0008 	str	r0, [fp, #-8]
    88bc:	e51b3008 	ldr	r3, [fp, #-8]
    88c0:	e1a00003 	mov	r0, r3
    88c4:	e28bd000 	add	sp, fp, #0
    88c8:	e49db004 	pop	{fp}		; (ldr fp, [sp], #4)
    88cc:	e12fff1e 	bx	lr

000088d0 <_ZN8GPIO_pin4initEPK4GPIOj>:
    88d0:	e52db004 	push	{fp}		; (str fp, [sp, #-4]!)
    88d4:	e28db000 	add	fp, sp, #0
    88d8:	e24dd014 	sub	sp, sp, #20
    88dc:	e50b0008 	str	r0, [fp, #-8]
    88e0:	e50b100c 	str	r1, [fp, #-12]
    88e4:	e50b2010 	str	r2, [fp, #-16]
    88e8:	e51b3008 	ldr	r3, [fp, #-8]
    88ec:	e51b200c 	ldr	r2, [fp, #-12]
    88f0:	e5832004 	str	r2, [r3, #4]
    88f4:	e51b3008 	ldr	r3, [fp, #-8]
    88f8:	e51b2010 	ldr	r2, [fp, #-16]
    88fc:	e5832000 	str	r2, [r3]
    8900:	e320f000 	nop	{0}
    8904:	e28bd000 	add	sp, fp, #0
    8908:	e49db004 	pop	{fp}		; (ldr fp, [sp], #4)
    890c:	e12fff1e 	bx	lr

00008910 <_ZNK4GPIO6GPFSELEj>:
    8910:	e92d4800 	push	{fp, lr}
    8914:	e28db004 	add	fp, sp, #4
    8918:	e24dd008 	sub	sp, sp, #8
    891c:	e50b0008 	str	r0, [fp, #-8]
    8920:	e50b100c 	str	r1, [fp, #-12]
    8924:	e51b3008 	ldr	r3, [fp, #-8]
    8928:	e1a00003 	mov	r0, r3
    892c:	ebffffde 	bl	88ac <_ZNK10Peripheral7addressEv>
    8930:	e1a03000 	mov	r3, r0
    8934:	e5932000 	ldr	r2, [r3]
    8938:	e51b300c 	ldr	r3, [fp, #-12]
    893c:	e1a03103 	lsl	r3, r3, #2
    8940:	e0823003 	add	r3, r2, r3
    8944:	e1a00003 	mov	r0, r3
    8948:	e24bd004 	sub	sp, fp, #4
    894c:	e8bd8800 	pop	{fp, pc}

00008950 <_ZNK4GPIO5GPSETEj>:
    8950:	e92d4800 	push	{fp, lr}
    8954:	e28db004 	add	fp, sp, #4
    8958:	e24dd008 	sub	sp, sp, #8
    895c:	e50b0008 	str	r0, [fp, #-8]
    8960:	e50b100c 	str	r1, [fp, #-12]
    8964:	e51b3008 	ldr	r3, [fp, #-8]
    8968:	e1a00003 	mov	r0, r3
    896c:	ebffffce 	bl	88ac <_ZNK10Peripheral7addressEv>
    8970:	e1a03000 	mov	r3, r0
    8974:	e5932000 	ldr	r2, [r3]
    8978:	e51b300c 	ldr	r3, [fp, #-12]
    897c:	e2833007 	add	r3, r3, #7
    8980:	e1a03103 	lsl	r3, r3, #2
    8984:	e0823003 	add	r3, r2, r3
    8988:	e1a00003 	mov	r0, r3
    898c:	e24bd004 	sub	sp, fp, #4
    8990:	e8bd8800 	pop	{fp, pc}

00008994 <_ZNK4GPIO5GPCLREj>:
    8994:	e92d4800 	push	{fp, lr}
    8998:	e28db004 	add	fp, sp, #4
    899c:	e24dd008 	sub	sp, sp, #8
    89a0:	e50b0008 	str	r0, [fp, #-8]
    89a4:	e50b100c 	str	r1, [fp, #-12]
    89a8:	e51b3008 	ldr	r3, [fp, #-8]
    89ac:	e1a00003 	mov	r0, r3
    89b0:	ebffffbd 	bl	88ac <_ZNK10Peripheral7addressEv>
    89b4:	e1a03000 	mov	r3, r0
    89b8:	e5932000 	ldr	r2, [r3]
    89bc:	e51b300c 	ldr	r3, [fp, #-12]
    89c0:	e283300a 	add	r3, r3, #10
    89c4:	e1a03103 	lsl	r3, r3, #2
    89c8:	e0823003 	add	r3, r2, r3
    89cc:	e1a00003 	mov	r0, r3
    89d0:	e24bd004 	sub	sp, fp, #4
    89d4:	e8bd8800 	pop	{fp, pc}

000089d8 <_ZNK4GPIO5GPLEVEj>:
    89d8:	e92d4800 	push	{fp, lr}
    89dc:	e28db004 	add	fp, sp, #4
    89e0:	e24dd008 	sub	sp, sp, #8
    89e4:	e50b0008 	str	r0, [fp, #-8]
    89e8:	e50b100c 	str	r1, [fp, #-12]
    89ec:	e51b3008 	ldr	r3, [fp, #-8]
    89f0:	e1a00003 	mov	r0, r3
    89f4:	ebffffac 	bl	88ac <_ZNK10Peripheral7addressEv>
    89f8:	e1a03000 	mov	r3, r0
    89fc:	e5932000 	ldr	r2, [r3]
    8a00:	e51b300c 	ldr	r3, [fp, #-12]
    8a04:	e283300d 	add	r3, r3, #13
    8a08:	e1a03103 	lsl	r3, r3, #2
    8a0c:	e0823003 	add	r3, r2, r3
    8a10:	e1a00003 	mov	r0, r3
    8a14:	e24bd004 	sub	sp, fp, #4
    8a18:	e8bd8800 	pop	{fp, pc}

00008a1c <_ZNK4GPIO5GPPUDEv>:
    8a1c:	e92d4800 	push	{fp, lr}
    8a20:	e28db004 	add	fp, sp, #4
    8a24:	e24dd008 	sub	sp, sp, #8
    8a28:	e50b0008 	str	r0, [fp, #-8]
    8a2c:	e51b3008 	ldr	r3, [fp, #-8]
    8a30:	e1a00003 	mov	r0, r3
    8a34:	ebffff9c 	bl	88ac <_ZNK10Peripheral7addressEv>
    8a38:	e1a03000 	mov	r3, r0
    8a3c:	e5933000 	ldr	r3, [r3]
    8a40:	e2833094 	add	r3, r3, #148	; 0x94
    8a44:	e1a00003 	mov	r0, r3
    8a48:	e24bd004 	sub	sp, fp, #4
    8a4c:	e8bd8800 	pop	{fp, pc}

00008a50 <_ZNK4GPIO8GPPUDCLKEj>:
    8a50:	e92d4800 	push	{fp, lr}
    8a54:	e28db004 	add	fp, sp, #4
    8a58:	e24dd008 	sub	sp, sp, #8
    8a5c:	e50b0008 	str	r0, [fp, #-8]
    8a60:	e50b100c 	str	r1, [fp, #-12]
    8a64:	e51b3008 	ldr	r3, [fp, #-8]
    8a68:	e1a00003 	mov	r0, r3
    8a6c:	ebffff8e 	bl	88ac <_ZNK10Peripheral7addressEv>
    8a70:	e1a03000 	mov	r3, r0
    8a74:	e5932000 	ldr	r2, [r3]
    8a78:	e51b300c 	ldr	r3, [fp, #-12]
    8a7c:	e2833026 	add	r3, r3, #38	; 0x26
    8a80:	e1a03103 	lsl	r3, r3, #2
    8a84:	e0823003 	add	r3, r2, r3
    8a88:	e1a00003 	mov	r0, r3
    8a8c:	e24bd004 	sub	sp, fp, #4
    8a90:	e8bd8800 	pop	{fp, pc}

00008a94 <_ZNK8GPIO_pin5inputEv>:
    8a94:	e92d4800 	push	{fp, lr}
    8a98:	e28db004 	add	fp, sp, #4
    8a9c:	e24dd008 	sub	sp, sp, #8
    8aa0:	e50b0008 	str	r0, [fp, #-8]
    8aa4:	e51b3008 	ldr	r3, [fp, #-8]
    8aa8:	e5930004 	ldr	r0, [r3, #4]
    8aac:	e51b3008 	ldr	r3, [fp, #-8]
    8ab0:	e5932000 	ldr	r2, [r3]
    8ab4:	e30c3ccd 	movw	r3, #52429	; 0xcccd
    8ab8:	e34c3ccc 	movt	r3, #52428	; 0xcccc
    8abc:	e0832392 	umull	r2, r3, r2, r3
    8ac0:	e1a031a3 	lsr	r3, r3, #3
    8ac4:	e1a01003 	mov	r1, r3
    8ac8:	ebffff90 	bl	8910 <_ZNK4GPIO6GPFSELEj>
    8acc:	e590c000 	ldr	ip, [r0]
    8ad0:	e51b3008 	ldr	r3, [fp, #-8]
    8ad4:	e5931000 	ldr	r1, [r3]
    8ad8:	e30c3ccd 	movw	r3, #52429	; 0xcccd
    8adc:	e34c3ccc 	movt	r3, #52428	; 0xcccc
    8ae0:	e0832391 	umull	r2, r3, r1, r3
    8ae4:	e1a031a3 	lsr	r3, r3, #3
    8ae8:	e3a0200a 	mov	r2, #10
    8aec:	e0030392 	mul	r3, r2, r3
    8af0:	e0413003 	sub	r3, r1, r3
    8af4:	e1a02003 	mov	r2, r3
    8af8:	e1a02082 	lsl	r2, r2, #1
    8afc:	e0823003 	add	r3, r2, r3
    8b00:	e3a02007 	mov	r2, #7
    8b04:	e1a03312 	lsl	r3, r2, r3
    8b08:	e1e03003 	mvn	r3, r3
    8b0c:	e003300c 	and	r3, r3, ip
    8b10:	e5803000 	str	r3, [r0]
    8b14:	e51b3008 	ldr	r3, [fp, #-8]
    8b18:	e1a00003 	mov	r0, r3
    8b1c:	e24bd004 	sub	sp, fp, #4
    8b20:	e8bd8800 	pop	{fp, pc}

00008b24 <_ZNK8GPIO_pin18alternate_functionEj>:
    8b24:	e92d4800 	push	{fp, lr}
    8b28:	e28db004 	add	fp, sp, #4
    8b2c:	e24dd010 	sub	sp, sp, #16
    8b30:	e50b0010 	str	r0, [fp, #-16]
    8b34:	e50b1014 	str	r1, [fp, #-20]	; 0xffffffec
    8b38:	e51b3010 	ldr	r3, [fp, #-16]
    8b3c:	e5930004 	ldr	r0, [r3, #4]
    8b40:	e51b3010 	ldr	r3, [fp, #-16]
    8b44:	e5932000 	ldr	r2, [r3]
    8b48:	e30c3ccd 	movw	r3, #52429	; 0xcccd
    8b4c:	e34c3ccc 	movt	r3, #52428	; 0xcccc
    8b50:	e0832392 	umull	r2, r3, r2, r3
    8b54:	e1a031a3 	lsr	r3, r3, #3
    8b58:	e1a01003 	mov	r1, r3
    8b5c:	ebffff6b 	bl	8910 <_ZNK4GPIO6GPFSELEj>
    8b60:	e50b0008 	str	r0, [fp, #-8]
    8b64:	e51b3010 	ldr	r3, [fp, #-16]
    8b68:	e5931000 	ldr	r1, [r3]
    8b6c:	e30c3ccd 	movw	r3, #52429	; 0xcccd
    8b70:	e34c3ccc 	movt	r3, #52428	; 0xcccc
    8b74:	e0832391 	umull	r2, r3, r1, r3
    8b78:	e1a031a3 	lsr	r3, r3, #3
    8b7c:	e3a0200a 	mov	r2, #10
    8b80:	e0030392 	mul	r3, r2, r3
    8b84:	e0413003 	sub	r3, r1, r3
    8b88:	e1a02003 	mov	r2, r3
    8b8c:	e1a02082 	lsl	r2, r2, #1
    8b90:	e0823003 	add	r3, r2, r3
    8b94:	e50b300c 	str	r3, [fp, #-12]
    8b98:	e51b3008 	ldr	r3, [fp, #-8]
    8b9c:	e5933000 	ldr	r3, [r3]
    8ba0:	e3a01007 	mov	r1, #7
    8ba4:	e51b200c 	ldr	r2, [fp, #-12]
    8ba8:	e1a02211 	lsl	r2, r1, r2
    8bac:	e1e02002 	mvn	r2, r2
    8bb0:	e0022003 	and	r2, r2, r3
    8bb4:	e51b3008 	ldr	r3, [fp, #-8]
    8bb8:	e5832000 	str	r2, [r3]
    8bbc:	e51b2008 	ldr	r2, [fp, #-8]
    8bc0:	e5921000 	ldr	r1, [r2]
    8bc4:	e51b3014 	ldr	r3, [fp, #-20]	; 0xffffffec
    8bc8:	e3530003 	cmp	r3, #3
    8bcc:	8a000002 	bhi	8bdc <_ZNK8GPIO_pin18alternate_functionEj+0xb8>
    8bd0:	e51b3014 	ldr	r3, [fp, #-20]	; 0xffffffec
    8bd4:	e2833004 	add	r3, r3, #4
    8bd8:	ea000005 	b	8bf4 <_ZNK8GPIO_pin18alternate_functionEj+0xd0>
    8bdc:	e51b3014 	ldr	r3, [fp, #-20]	; 0xffffffec
    8be0:	e3530004 	cmp	r3, #4
    8be4:	1a000001 	bne	8bf0 <_ZNK8GPIO_pin18alternate_functionEj+0xcc>
    8be8:	e3a03003 	mov	r3, #3
    8bec:	ea000000 	b	8bf4 <_ZNK8GPIO_pin18alternate_functionEj+0xd0>
    8bf0:	e3a03002 	mov	r3, #2
    8bf4:	e51b000c 	ldr	r0, [fp, #-12]
    8bf8:	e1a03013 	lsl	r3, r3, r0
    8bfc:	e1813003 	orr	r3, r1, r3
    8c00:	e5823000 	str	r3, [r2]
    8c04:	e51b3010 	ldr	r3, [fp, #-16]
    8c08:	e1a00003 	mov	r0, r3
    8c0c:	e24bd004 	sub	sp, fp, #4
    8c10:	e8bd8800 	pop	{fp, pc}

00008c14 <_ZNK8GPIO_pin15function_selectE12PIN_FUNCTION>:
    8c14:	e92d4800 	push	{fp, lr}
    8c18:	e28db004 	add	fp, sp, #4
    8c1c:	e24dd010 	sub	sp, sp, #16
    8c20:	e50b0010 	str	r0, [fp, #-16]
    8c24:	e1a03001 	mov	r3, r1
    8c28:	e54b3011 	strb	r3, [fp, #-17]	; 0xffffffef
    8c2c:	e51b3010 	ldr	r3, [fp, #-16]
    8c30:	e5930004 	ldr	r0, [r3, #4]
    8c34:	e51b3010 	ldr	r3, [fp, #-16]
    8c38:	e5932000 	ldr	r2, [r3]
    8c3c:	e30c3ccd 	movw	r3, #52429	; 0xcccd
    8c40:	e34c3ccc 	movt	r3, #52428	; 0xcccc
    8c44:	e0832392 	umull	r2, r3, r2, r3
    8c48:	e1a031a3 	lsr	r3, r3, #3
    8c4c:	e1a01003 	mov	r1, r3
    8c50:	ebffff2e 	bl	8910 <_ZNK4GPIO6GPFSELEj>
    8c54:	e50b0008 	str	r0, [fp, #-8]
    8c58:	e51b3010 	ldr	r3, [fp, #-16]
    8c5c:	e5931000 	ldr	r1, [r3]
    8c60:	e30c3ccd 	movw	r3, #52429	; 0xcccd
    8c64:	e34c3ccc 	movt	r3, #52428	; 0xcccc
    8c68:	e0832391 	umull	r2, r3, r1, r3
    8c6c:	e1a031a3 	lsr	r3, r3, #3
    8c70:	e3a0200a 	mov	r2, #10
    8c74:	e0030392 	mul	r3, r2, r3
    8c78:	e0413003 	sub	r3, r1, r3
    8c7c:	e1a02003 	mov	r2, r3
    8c80:	e1a02082 	lsl	r2, r2, #1
    8c84:	e0823003 	add	r3, r2, r3
    8c88:	e50b300c 	str	r3, [fp, #-12]
    8c8c:	e51b3008 	ldr	r3, [fp, #-8]
    8c90:	e5933000 	ldr	r3, [r3]
    8c94:	e3a01007 	mov	r1, #7
    8c98:	e51b200c 	ldr	r2, [fp, #-12]
    8c9c:	e1a02211 	lsl	r2, r1, r2
    8ca0:	e1e02002 	mvn	r2, r2
    8ca4:	e0022003 	and	r2, r2, r3
    8ca8:	e51b3008 	ldr	r3, [fp, #-8]
    8cac:	e5832000 	str	r2, [r3]
    8cb0:	e51b3008 	ldr	r3, [fp, #-8]
    8cb4:	e5932000 	ldr	r2, [r3]
    8cb8:	e55b0011 	ldrb	r0, [fp, #-17]	; 0xffffffef
    8cbc:	e51b100c 	ldr	r1, [fp, #-12]
    8cc0:	e1a01110 	lsl	r1, r0, r1
    8cc4:	e1822001 	orr	r2, r2, r1
    8cc8:	e5832000 	str	r2, [r3]
    8ccc:	e51b3010 	ldr	r3, [fp, #-16]
    8cd0:	e1a00003 	mov	r0, r3
    8cd4:	e24bd004 	sub	sp, fp, #4
    8cd8:	e8bd8800 	pop	{fp, pc}

00008cdc <_ZNK8GPIO_pin3setEv>:
    8cdc:	e92d4810 	push	{r4, fp, lr}
    8ce0:	e28db008 	add	fp, sp, #8
    8ce4:	e24dd00c 	sub	sp, sp, #12
    8ce8:	e50b0010 	str	r0, [fp, #-16]
    8cec:	e51b3010 	ldr	r3, [fp, #-16]
    8cf0:	e5933000 	ldr	r3, [r3]
    8cf4:	e203301f 	and	r3, r3, #31
    8cf8:	e3a02001 	mov	r2, #1
    8cfc:	e1a04312 	lsl	r4, r2, r3
    8d00:	e51b3010 	ldr	r3, [fp, #-16]
    8d04:	e5932004 	ldr	r2, [r3, #4]
    8d08:	e51b3010 	ldr	r3, [fp, #-16]
    8d0c:	e5933000 	ldr	r3, [r3]
    8d10:	e1a032a3 	lsr	r3, r3, #5
    8d14:	e1a01003 	mov	r1, r3
    8d18:	e1a00002 	mov	r0, r2
    8d1c:	ebffff0b 	bl	8950 <_ZNK4GPIO5GPSETEj>
    8d20:	e1a03000 	mov	r3, r0
    8d24:	e1a02004 	mov	r2, r4
    8d28:	e5832000 	str	r2, [r3]
    8d2c:	e51b3010 	ldr	r3, [fp, #-16]
    8d30:	e1a00003 	mov	r0, r3
    8d34:	e24bd008 	sub	sp, fp, #8
    8d38:	e8bd8810 	pop	{r4, fp, pc}

00008d3c <_ZNK8GPIO_pin5clearEv>:
    8d3c:	e92d4810 	push	{r4, fp, lr}
    8d40:	e28db008 	add	fp, sp, #8
    8d44:	e24dd00c 	sub	sp, sp, #12
    8d48:	e50b0010 	str	r0, [fp, #-16]
    8d4c:	e51b3010 	ldr	r3, [fp, #-16]
    8d50:	e5933000 	ldr	r3, [r3]
    8d54:	e203301f 	and	r3, r3, #31
    8d58:	e3a02001 	mov	r2, #1
    8d5c:	e1a04312 	lsl	r4, r2, r3
    8d60:	e51b3010 	ldr	r3, [fp, #-16]
    8d64:	e5932004 	ldr	r2, [r3, #4]
    8d68:	e51b3010 	ldr	r3, [fp, #-16]
    8d6c:	e5933000 	ldr	r3, [r3]
    8d70:	e1a032a3 	lsr	r3, r3, #5
    8d74:	e1a01003 	mov	r1, r3
    8d78:	e1a00002 	mov	r0, r2
    8d7c:	ebffff04 	bl	8994 <_ZNK4GPIO5GPCLREj>
    8d80:	e1a03000 	mov	r3, r0
    8d84:	e1a02004 	mov	r2, r4
    8d88:	e5832000 	str	r2, [r3]
    8d8c:	e51b3010 	ldr	r3, [fp, #-16]
    8d90:	e1a00003 	mov	r0, r3
    8d94:	e24bd008 	sub	sp, fp, #8
    8d98:	e8bd8810 	pop	{r4, fp, pc}

00008d9c <_ZNK8GPIO_pin5levelEv>:
    8d9c:	e92d4800 	push	{fp, lr}
    8da0:	e28db004 	add	fp, sp, #4
    8da4:	e24dd008 	sub	sp, sp, #8
    8da8:	e50b0008 	str	r0, [fp, #-8]
    8dac:	e51b3008 	ldr	r3, [fp, #-8]
    8db0:	e5932004 	ldr	r2, [r3, #4]
    8db4:	e51b3008 	ldr	r3, [fp, #-8]
    8db8:	e5933000 	ldr	r3, [r3]
    8dbc:	e1a032a3 	lsr	r3, r3, #5
    8dc0:	e1a01003 	mov	r1, r3
    8dc4:	e1a00002 	mov	r0, r2
    8dc8:	ebffff02 	bl	89d8 <_ZNK4GPIO5GPLEVEj>
    8dcc:	e1a02000 	mov	r2, r0
    8dd0:	e5923000 	ldr	r3, [r2]
    8dd4:	e51b1008 	ldr	r1, [fp, #-8]
    8dd8:	e5911000 	ldr	r1, [r1]
    8ddc:	e201101f 	and	r1, r1, #31
    8de0:	e3a00001 	mov	r0, #1
    8de4:	e1a01110 	lsl	r1, r0, r1
    8de8:	e0033001 	and	r3, r3, r1
    8dec:	e5823000 	str	r3, [r2]
    8df0:	e3530000 	cmp	r3, #0
    8df4:	13a03001 	movne	r3, #1
    8df8:	03a03000 	moveq	r3, #0
    8dfc:	e6ef3073 	uxtb	r3, r3
    8e00:	e1a00003 	mov	r0, r3
    8e04:	e24bd004 	sub	sp, fp, #4
    8e08:	e8bd8800 	pop	{fp, pc}

00008e0c <_ZN11PWM_channel4initEPK3PWMj>:
    8e0c:	e52db004 	push	{fp}		; (str fp, [sp, #-4]!)
    8e10:	e28db000 	add	fp, sp, #0
    8e14:	e24dd014 	sub	sp, sp, #20
    8e18:	e50b0008 	str	r0, [fp, #-8]
    8e1c:	e50b100c 	str	r1, [fp, #-12]
    8e20:	e50b2010 	str	r2, [fp, #-16]
    8e24:	e51b3008 	ldr	r3, [fp, #-8]
    8e28:	e51b200c 	ldr	r2, [fp, #-12]
    8e2c:	e5832004 	str	r2, [r3, #4]
    8e30:	e51b3008 	ldr	r3, [fp, #-8]
    8e34:	e51b2010 	ldr	r2, [fp, #-16]
    8e38:	e5832000 	str	r2, [r3]
    8e3c:	e320f000 	nop	{0}
    8e40:	e28bd000 	add	sp, fp, #0
    8e44:	e49db004 	pop	{fp}		; (ldr fp, [sp], #4)
    8e48:	e12fff1e 	bx	lr

00008e4c <_ZNK3PWM3CTLEv>:
    8e4c:	e92d4800 	push	{fp, lr}
    8e50:	e28db004 	add	fp, sp, #4
    8e54:	e24dd008 	sub	sp, sp, #8
    8e58:	e50b0008 	str	r0, [fp, #-8]
    8e5c:	e51b3008 	ldr	r3, [fp, #-8]
    8e60:	e1a00003 	mov	r0, r3
    8e64:	ebfffe90 	bl	88ac <_ZNK10Peripheral7addressEv>
    8e68:	e1a03000 	mov	r3, r0
    8e6c:	e5933000 	ldr	r3, [r3]
    8e70:	e1a00003 	mov	r0, r3
    8e74:	e24bd004 	sub	sp, fp, #4
    8e78:	e8bd8800 	pop	{fp, pc}

00008e7c <_ZNK3PWM3RNGEj>:
    8e7c:	e92d4800 	push	{fp, lr}
    8e80:	e28db004 	add	fp, sp, #4
    8e84:	e24dd008 	sub	sp, sp, #8
    8e88:	e50b0008 	str	r0, [fp, #-8]
    8e8c:	e50b100c 	str	r1, [fp, #-12]
    8e90:	e51b3008 	ldr	r3, [fp, #-8]
    8e94:	e1a00003 	mov	r0, r3
    8e98:	ebfffe83 	bl	88ac <_ZNK10Peripheral7addressEv>
    8e9c:	e1a03000 	mov	r3, r0
    8ea0:	e5932000 	ldr	r2, [r3]
    8ea4:	e51b300c 	ldr	r3, [fp, #-12]
    8ea8:	e2833001 	add	r3, r3, #1
    8eac:	e1a03203 	lsl	r3, r3, #4
    8eb0:	e0823003 	add	r3, r2, r3
    8eb4:	e1a00003 	mov	r0, r3
    8eb8:	e24bd004 	sub	sp, fp, #4
    8ebc:	e8bd8800 	pop	{fp, pc}

00008ec0 <_ZNK3PWM3DATEj>:
    8ec0:	e92d4800 	push	{fp, lr}
    8ec4:	e28db004 	add	fp, sp, #4
    8ec8:	e24dd008 	sub	sp, sp, #8
    8ecc:	e50b0008 	str	r0, [fp, #-8]
    8ed0:	e50b100c 	str	r1, [fp, #-12]
    8ed4:	e51b3008 	ldr	r3, [fp, #-8]
    8ed8:	e1a00003 	mov	r0, r3
    8edc:	ebfffe72 	bl	88ac <_ZNK10Peripheral7addressEv>
    8ee0:	e1a03000 	mov	r3, r0
    8ee4:	e5932000 	ldr	r2, [r3]
    8ee8:	e51b300c 	ldr	r3, [fp, #-12]
    8eec:	e1a03203 	lsl	r3, r3, #4
    8ef0:	e2833014 	add	r3, r3, #20
    8ef4:	e0823003 	add	r3, r2, r3
    8ef8:	e1a00003 	mov	r0, r3
    8efc:	e24bd004 	sub	sp, fp, #4
    8f00:	e8bd8800 	pop	{fp, pc}

00008f04 <_ZN13Clock_manager4initEPK5Clock10CLOCK_NAME>:
    8f04:	e52db004 	push	{fp}		; (str fp, [sp, #-4]!)
    8f08:	e28db000 	add	fp, sp, #0
    8f0c:	e24dd014 	sub	sp, sp, #20
    8f10:	e50b0008 	str	r0, [fp, #-8]
    8f14:	e50b100c 	str	r1, [fp, #-12]
    8f18:	e1a03002 	mov	r3, r2
    8f1c:	e54b300d 	strb	r3, [fp, #-13]
    8f20:	e51b3008 	ldr	r3, [fp, #-8]
    8f24:	e51b200c 	ldr	r2, [fp, #-12]
    8f28:	e5832004 	str	r2, [r3, #4]
    8f2c:	e51b3008 	ldr	r3, [fp, #-8]
    8f30:	e55b200d 	ldrb	r2, [fp, #-13]
    8f34:	e5c32000 	strb	r2, [r3]
    8f38:	e320f000 	nop	{0}
    8f3c:	e28bd000 	add	sp, fp, #0
    8f40:	e49db004 	pop	{fp}		; (ldr fp, [sp], #4)
    8f44:	e12fff1e 	bx	lr

00008f48 <_ZNK5Clock5GPCTLE10CLOCK_NAME>:
    8f48:	e92d4800 	push	{fp, lr}
    8f4c:	e28db004 	add	fp, sp, #4
    8f50:	e24dd008 	sub	sp, sp, #8
    8f54:	e50b0008 	str	r0, [fp, #-8]
    8f58:	e1a03001 	mov	r3, r1
    8f5c:	e54b3009 	strb	r3, [fp, #-9]
    8f60:	e55b3009 	ldrb	r3, [fp, #-9]
    8f64:	e3530003 	cmp	r3, #3
    8f68:	1a000006 	bne	8f88 <_ZNK5Clock5GPCTLE10CLOCK_NAME+0x40>
    8f6c:	e51b3008 	ldr	r3, [fp, #-8]
    8f70:	e1a00003 	mov	r0, r3
    8f74:	ebfffe4c 	bl	88ac <_ZNK10Peripheral7addressEv>
    8f78:	e1a03000 	mov	r3, r0
    8f7c:	e5933000 	ldr	r3, [r3]
    8f80:	e28330a0 	add	r3, r3, #160	; 0xa0
    8f84:	ea000008 	b	8fac <_ZNK5Clock5GPCTLE10CLOCK_NAME+0x64>
    8f88:	e51b3008 	ldr	r3, [fp, #-8]
    8f8c:	e1a00003 	mov	r0, r3
    8f90:	ebfffe45 	bl	88ac <_ZNK10Peripheral7addressEv>
    8f94:	e1a03000 	mov	r3, r0
    8f98:	e5932000 	ldr	r2, [r3]
    8f9c:	e55b3009 	ldrb	r3, [fp, #-9]
    8fa0:	e1a03183 	lsl	r3, r3, #3
    8fa4:	e2833070 	add	r3, r3, #112	; 0x70
    8fa8:	e0823003 	add	r3, r2, r3
    8fac:	e1a00003 	mov	r0, r3
    8fb0:	e24bd004 	sub	sp, fp, #4
    8fb4:	e8bd8800 	pop	{fp, pc}

00008fb8 <_ZNK5Clock5GPDIVE10CLOCK_NAME>:
    8fb8:	e92d4800 	push	{fp, lr}
    8fbc:	e28db004 	add	fp, sp, #4
    8fc0:	e24dd008 	sub	sp, sp, #8
    8fc4:	e50b0008 	str	r0, [fp, #-8]
    8fc8:	e1a03001 	mov	r3, r1
    8fcc:	e54b3009 	strb	r3, [fp, #-9]
    8fd0:	e55b3009 	ldrb	r3, [fp, #-9]
    8fd4:	e3530003 	cmp	r3, #3
    8fd8:	1a000006 	bne	8ff8 <_ZNK5Clock5GPDIVE10CLOCK_NAME+0x40>
    8fdc:	e51b3008 	ldr	r3, [fp, #-8]
    8fe0:	e1a00003 	mov	r0, r3
    8fe4:	ebfffe30 	bl	88ac <_ZNK10Peripheral7addressEv>
    8fe8:	e1a03000 	mov	r3, r0
    8fec:	e5933000 	ldr	r3, [r3]
    8ff0:	e28330a4 	add	r3, r3, #164	; 0xa4
    8ff4:	ea000008 	b	901c <_ZNK5Clock5GPDIVE10CLOCK_NAME+0x64>
    8ff8:	e51b3008 	ldr	r3, [fp, #-8]
    8ffc:	e1a00003 	mov	r0, r3
    9000:	ebfffe29 	bl	88ac <_ZNK10Peripheral7addressEv>
    9004:	e1a03000 	mov	r3, r0
    9008:	e5932000 	ldr	r2, [r3]
    900c:	e55b3009 	ldrb	r3, [fp, #-9]
    9010:	e1a03183 	lsl	r3, r3, #3
    9014:	e2833074 	add	r3, r3, #116	; 0x74
    9018:	e0823003 	add	r3, r2, r3
    901c:	e1a00003 	mov	r0, r3
    9020:	e24bd004 	sub	sp, fp, #4
    9024:	e8bd8800 	pop	{fp, pc}

00009028 <_ZN13Timer_channel4initEPK5Timerj>:
    9028:	e52db004 	push	{fp}		; (str fp, [sp, #-4]!)
    902c:	e28db000 	add	fp, sp, #0
    9030:	e24dd014 	sub	sp, sp, #20
    9034:	e50b0008 	str	r0, [fp, #-8]
    9038:	e50b100c 	str	r1, [fp, #-12]
    903c:	e50b2010 	str	r2, [fp, #-16]
    9040:	e51b3008 	ldr	r3, [fp, #-8]
    9044:	e51b200c 	ldr	r2, [fp, #-12]
    9048:	e5832004 	str	r2, [r3, #4]
    904c:	e51b3008 	ldr	r3, [fp, #-8]
    9050:	e51b2010 	ldr	r2, [fp, #-16]
    9054:	e5832000 	str	r2, [r3]
    9058:	e320f000 	nop	{0}
    905c:	e28bd000 	add	sp, fp, #0
    9060:	e49db004 	pop	{fp}		; (ldr fp, [sp], #4)
    9064:	e12fff1e 	bx	lr

00009068 <_ZZNK4GPIO12pull_up_downIA28_jEEv10PUD_STATUSRKT_ENKUlvE_clEv>:
    9068:	e52db004 	push	{fp}		; (str fp, [sp, #-4]!)
    906c:	e28db000 	add	fp, sp, #0
    9070:	e24dd00c 	sub	sp, sp, #12
    9074:	e50b0008 	str	r0, [fp, #-8]
    9078:	e320f000 	nop	{0}
    907c:	e320f000 	nop	{0}
    9080:	e28bd000 	add	sp, fp, #0
    9084:	e49db004 	pop	{fp}		; (ldr fp, [sp], #4)
    9088:	e12fff1e 	bx	lr

0000908c <_ZZNK4GPIO12pull_up_downIA28_jEEv10PUD_STATUSRKT_ENUlvE_4_FUNEv>:
    908c:	e92d4800 	push	{fp, lr}
    9090:	e28db004 	add	fp, sp, #4
    9094:	e3a00000 	mov	r0, #0
    9098:	ebfffff2 	bl	9068 <_ZZNK4GPIO12pull_up_downIA28_jEEv10PUD_STATUSRKT_ENKUlvE_clEv>
    909c:	e8bd8800 	pop	{fp, pc}

000090a0 <_ZZNK4GPIO12pull_up_downIA28_jEEv10PUD_STATUSRKT_ENKUlvE0_clEv>:
    90a0:	e52db004 	push	{fp}		; (str fp, [sp, #-4]!)
    90a4:	e28db000 	add	fp, sp, #0
    90a8:	e24dd00c 	sub	sp, sp, #12
    90ac:	e50b0008 	str	r0, [fp, #-8]
    90b0:	e320f000 	nop	{0}
    90b4:	e320f000 	nop	{0}
    90b8:	e28bd000 	add	sp, fp, #0
    90bc:	e49db004 	pop	{fp}		; (ldr fp, [sp], #4)
    90c0:	e12fff1e 	bx	lr

000090c4 <_ZZNK4GPIO12pull_up_downIA28_jEEv10PUD_STATUSRKT_ENUlvE0_4_FUNEv>:
    90c4:	e92d4800 	push	{fp, lr}
    90c8:	e28db004 	add	fp, sp, #4
    90cc:	e3a00000 	mov	r0, #0
    90d0:	ebfffff2 	bl	90a0 <_ZZNK4GPIO12pull_up_downIA28_jEEv10PUD_STATUSRKT_ENKUlvE0_clEv>
    90d4:	e8bd8800 	pop	{fp, pc}

000090d8 <_ZNK4GPIO12pull_up_downIA28_jEEv10PUD_STATUSRKT_>:
    90d8:	e92d4800 	push	{fp, lr}
    90dc:	e28db004 	add	fp, sp, #4
    90e0:	e24dd038 	sub	sp, sp, #56	; 0x38
    90e4:	e50b0030 	str	r0, [fp, #-48]	; 0xffffffd0
    90e8:	e1a03001 	mov	r3, r1
    90ec:	e50b2038 	str	r2, [fp, #-56]	; 0xffffffc8
    90f0:	e54b3031 	strb	r3, [fp, #-49]	; 0xffffffcf
    90f4:	e51b0030 	ldr	r0, [fp, #-48]	; 0xffffffd0
    90f8:	ebfffe47 	bl	8a1c <_ZNK4GPIO5GPPUDEv>
    90fc:	e1a02000 	mov	r2, r0
    9100:	e55b3031 	ldrb	r3, [fp, #-49]	; 0xffffffcf
    9104:	e5823000 	str	r3, [r2]
    9108:	e24b302c 	sub	r3, fp, #44	; 0x2c
    910c:	e1a00003 	mov	r0, r3
    9110:	eb00003e 	bl	9210 <_ZN6UnrollILj150EE4callIZNK4GPIO12pull_up_downIA28_jEEv10PUD_STATUSRKT_EUlvE_EEvS8_>
    9114:	e51b3038 	ldr	r3, [fp, #-56]	; 0xffffffc8
    9118:	e50b3010 	str	r3, [fp, #-16]
    911c:	e51b3010 	ldr	r3, [fp, #-16]
    9120:	e50b3008 	str	r3, [fp, #-8]
    9124:	e51b3010 	ldr	r3, [fp, #-16]
    9128:	e2833070 	add	r3, r3, #112	; 0x70
    912c:	e50b3014 	str	r3, [fp, #-20]	; 0xffffffec
    9130:	e51b2008 	ldr	r2, [fp, #-8]
    9134:	e51b3014 	ldr	r3, [fp, #-20]	; 0xffffffec
    9138:	e1520003 	cmp	r2, r3
    913c:	0a00000e 	beq	917c <_ZNK4GPIO12pull_up_downIA28_jEEv10PUD_STATUSRKT_+0xa4>
    9140:	e51b3008 	ldr	r3, [fp, #-8]
    9144:	e5933000 	ldr	r3, [r3]
    9148:	e50b3018 	str	r3, [fp, #-24]	; 0xffffffe8
    914c:	e51b3030 	ldr	r3, [fp, #-48]	; 0xffffffd0
    9150:	e59321b4 	ldr	r2, [r3, #436]	; 0x1b4
    9154:	e51b3018 	ldr	r3, [fp, #-24]	; 0xffffffe8
    9158:	e1a03183 	lsl	r3, r3, #3
    915c:	e0823003 	add	r3, r2, r3
    9160:	e3a01001 	mov	r1, #1
    9164:	e1a00003 	mov	r0, r3
    9168:	ebfffbb7 	bl	804c <_ZNK8GPIO_pin9pud_clockEb>
    916c:	e51b3008 	ldr	r3, [fp, #-8]
    9170:	e2833004 	add	r3, r3, #4
    9174:	e50b3008 	str	r3, [fp, #-8]
    9178:	eaffffec 	b	9130 <_ZNK4GPIO12pull_up_downIA28_jEEv10PUD_STATUSRKT_+0x58>
    917c:	e24b3028 	sub	r3, fp, #40	; 0x28
    9180:	e1a00003 	mov	r0, r3
    9184:	eb00002c 	bl	923c <_ZN6UnrollILj150EE4callIZNK4GPIO12pull_up_downIA28_jEEv10PUD_STATUSRKT_EUlvE0_EEvS8_>
    9188:	e51b0030 	ldr	r0, [fp, #-48]	; 0xffffffd0
    918c:	ebfffe22 	bl	8a1c <_ZNK4GPIO5GPPUDEv>
    9190:	e1a02000 	mov	r2, r0
    9194:	e3a03000 	mov	r3, #0
    9198:	e5823000 	str	r3, [r2]
    919c:	e51b3038 	ldr	r3, [fp, #-56]	; 0xffffffc8
    91a0:	e50b301c 	str	r3, [fp, #-28]	; 0xffffffe4
    91a4:	e51b301c 	ldr	r3, [fp, #-28]	; 0xffffffe4
    91a8:	e50b300c 	str	r3, [fp, #-12]
    91ac:	e51b301c 	ldr	r3, [fp, #-28]	; 0xffffffe4
    91b0:	e2833070 	add	r3, r3, #112	; 0x70
    91b4:	e50b3020 	str	r3, [fp, #-32]	; 0xffffffe0
    91b8:	e51b200c 	ldr	r2, [fp, #-12]
    91bc:	e51b3020 	ldr	r3, [fp, #-32]	; 0xffffffe0
    91c0:	e1520003 	cmp	r2, r3
    91c4:	0a00000e 	beq	9204 <_ZNK4GPIO12pull_up_downIA28_jEEv10PUD_STATUSRKT_+0x12c>
    91c8:	e51b300c 	ldr	r3, [fp, #-12]
    91cc:	e5933000 	ldr	r3, [r3]
    91d0:	e50b3024 	str	r3, [fp, #-36]	; 0xffffffdc
    91d4:	e51b3030 	ldr	r3, [fp, #-48]	; 0xffffffd0
    91d8:	e59321b4 	ldr	r2, [r3, #436]	; 0x1b4
    91dc:	e51b3024 	ldr	r3, [fp, #-36]	; 0xffffffdc
    91e0:	e1a03183 	lsl	r3, r3, #3
    91e4:	e0823003 	add	r3, r2, r3
    91e8:	e3a01000 	mov	r1, #0
    91ec:	e1a00003 	mov	r0, r3
    91f0:	ebfffb95 	bl	804c <_ZNK8GPIO_pin9pud_clockEb>
    91f4:	e51b300c 	ldr	r3, [fp, #-12]
    91f8:	e2833004 	add	r3, r3, #4
    91fc:	e50b300c 	str	r3, [fp, #-12]
    9200:	eaffffec 	b	91b8 <_ZNK4GPIO12pull_up_downIA28_jEEv10PUD_STATUSRKT_+0xe0>
    9204:	e320f000 	nop	{0}
    9208:	e24bd004 	sub	sp, fp, #4
    920c:	e8bd8800 	pop	{fp, pc}

00009210 <_ZN6UnrollILj150EE4callIZNK4GPIO12pull_up_downIA28_jEEv10PUD_STATUSRKT_EUlvE_EEvS8_>:
    9210:	e92d4800 	push	{fp, lr}
    9214:	e28db004 	add	fp, sp, #4
    9218:	e24dd008 	sub	sp, sp, #8
    921c:	e50b0008 	str	r0, [fp, #-8]
    9220:	e51b0008 	ldr	r0, [fp, #-8]
    9224:	ebffff8f 	bl	9068 <_ZZNK4GPIO12pull_up_downIA28_jEEv10PUD_STATUSRKT_ENKUlvE_clEv>
    9228:	e51b0008 	ldr	r0, [fp, #-8]
    922c:	eb00000d 	bl	9268 <_ZN6UnrollILj149EE4callIZNK4GPIO12pull_up_downIA28_jEEv10PUD_STATUSRKT_EUlvE_EEvS8_>
    9230:	e320f000 	nop	{0}
    9234:	e24bd004 	sub	sp, fp, #4
    9238:	e8bd8800 	pop	{fp, pc}

0000923c <_ZN6UnrollILj150EE4callIZNK4GPIO12pull_up_downIA28_jEEv10PUD_STATUSRKT_EUlvE0_EEvS8_>:
    923c:	e92d4800 	push	{fp, lr}
    9240:	e28db004 	add	fp, sp, #4
    9244:	e24dd008 	sub	sp, sp, #8
    9248:	e50b0008 	str	r0, [fp, #-8]
    924c:	e51b0008 	ldr	r0, [fp, #-8]
    9250:	ebffff92 	bl	90a0 <_ZZNK4GPIO12pull_up_downIA28_jEEv10PUD_STATUSRKT_ENKUlvE0_clEv>
    9254:	e51b0008 	ldr	r0, [fp, #-8]
    9258:	eb00000d 	bl	9294 <_ZN6UnrollILj149EE4callIZNK4GPIO12pull_up_downIA28_jEEv10PUD_STATUSRKT_EUlvE0_EEvS8_>
    925c:	e320f000 	nop	{0}
    9260:	e24bd004 	sub	sp, fp, #4
    9264:	e8bd8800 	pop	{fp, pc}

00009268 <_ZN6UnrollILj149EE4callIZNK4GPIO12pull_up_downIA28_jEEv10PUD_STATUSRKT_EUlvE_EEvS8_>:
    9268:	e92d4800 	push	{fp, lr}
    926c:	e28db004 	add	fp, sp, #4
    9270:	e24dd008 	sub	sp, sp, #8
    9274:	e50b0008 	str	r0, [fp, #-8]
    9278:	e51b0008 	ldr	r0, [fp, #-8]
    927c:	ebffff79 	bl	9068 <_ZZNK4GPIO12pull_up_downIA28_jEEv10PUD_STATUSRKT_ENKUlvE_clEv>
    9280:	e51b0008 	ldr	r0, [fp, #-8]
    9284:	eb00000d 	bl	92c0 <_ZN6UnrollILj148EE4callIZNK4GPIO12pull_up_downIA28_jEEv10PUD_STATUSRKT_EUlvE_EEvS8_>
    9288:	e320f000 	nop	{0}
    928c:	e24bd004 	sub	sp, fp, #4
    9290:	e8bd8800 	pop	{fp, pc}

00009294 <_ZN6UnrollILj149EE4callIZNK4GPIO12pull_up_downIA28_jEEv10PUD_STATUSRKT_EUlvE0_EEvS8_>:
    9294:	e92d4800 	push	{fp, lr}
    9298:	e28db004 	add	fp, sp, #4
    929c:	e24dd008 	sub	sp, sp, #8
    92a0:	e50b0008 	str	r0, [fp, #-8]
    92a4:	e51b0008 	ldr	r0, [fp, #-8]
    92a8:	ebffff7c 	bl	90a0 <_ZZNK4GPIO12pull_up_downIA28_jEEv10PUD_STATUSRKT_ENKUlvE0_clEv>
    92ac:	e51b0008 	ldr	r0, [fp, #-8]
    92b0:	eb00000d 	bl	92ec <_ZN6UnrollILj148EE4callIZNK4GPIO12pull_up_downIA28_jEEv10PUD_STATUSRKT_EUlvE0_EEvS8_>
    92b4:	e320f000 	nop	{0}
    92b8:	e24bd004 	sub	sp, fp, #4
    92bc:	e8bd8800 	pop	{fp, pc}

000092c0 <_ZN6UnrollILj148EE4callIZNK4GPIO12pull_up_downIA28_jEEv10PUD_STATUSRKT_EUlvE_EEvS8_>:
    92c0:	e92d4800 	push	{fp, lr}
    92c4:	e28db004 	add	fp, sp, #4
    92c8:	e24dd008 	sub	sp, sp, #8
    92cc:	e50b0008 	str	r0, [fp, #-8]
    92d0:	e51b0008 	ldr	r0, [fp, #-8]
    92d4:	ebffff63 	bl	9068 <_ZZNK4GPIO12pull_up_downIA28_jEEv10PUD_STATUSRKT_ENKUlvE_clEv>
    92d8:	e51b0008 	ldr	r0, [fp, #-8]
    92dc:	eb00000d 	bl	9318 <_ZN6UnrollILj147EE4callIZNK4GPIO12pull_up_downIA28_jEEv10PUD_STATUSRKT_EUlvE_EEvS8_>
    92e0:	e320f000 	nop	{0}
    92e4:	e24bd004 	sub	sp, fp, #4
    92e8:	e8bd8800 	pop	{fp, pc}

000092ec <_ZN6UnrollILj148EE4callIZNK4GPIO12pull_up_downIA28_jEEv10PUD_STATUSRKT_EUlvE0_EEvS8_>:
    92ec:	e92d4800 	push	{fp, lr}
    92f0:	e28db004 	add	fp, sp, #4
    92f4:	e24dd008 	sub	sp, sp, #8
    92f8:	e50b0008 	str	r0, [fp, #-8]
    92fc:	e51b0008 	ldr	r0, [fp, #-8]
    9300:	ebffff66 	bl	90a0 <_ZZNK4GPIO12pull_up_downIA28_jEEv10PUD_STATUSRKT_ENKUlvE0_clEv>
    9304:	e51b0008 	ldr	r0, [fp, #-8]
    9308:	eb00000d 	bl	9344 <_ZN6UnrollILj147EE4callIZNK4GPIO12pull_up_downIA28_jEEv10PUD_STATUSRKT_EUlvE0_EEvS8_>
    930c:	e320f000 	nop	{0}
    9310:	e24bd004 	sub	sp, fp, #4
    9314:	e8bd8800 	pop	{fp, pc}

00009318 <_ZN6UnrollILj147EE4callIZNK4GPIO12pull_up_downIA28_jEEv10PUD_STATUSRKT_EUlvE_EEvS8_>:
    9318:	e92d4800 	push	{fp, lr}
    931c:	e28db004 	add	fp, sp, #4
    9320:	e24dd008 	sub	sp, sp, #8
    9324:	e50b0008 	str	r0, [fp, #-8]
    9328:	e51b0008 	ldr	r0, [fp, #-8]
    932c:	ebffff4d 	bl	9068 <_ZZNK4GPIO12pull_up_downIA28_jEEv10PUD_STATUSRKT_ENKUlvE_clEv>
    9330:	e51b0008 	ldr	r0, [fp, #-8]
    9334:	eb00000d 	bl	9370 <_ZN6UnrollILj146EE4callIZNK4GPIO12pull_up_downIA28_jEEv10PUD_STATUSRKT_EUlvE_EEvS8_>
    9338:	e320f000 	nop	{0}
    933c:	e24bd004 	sub	sp, fp, #4
    9340:	e8bd8800 	pop	{fp, pc}

00009344 <_ZN6UnrollILj147EE4callIZNK4GPIO12pull_up_downIA28_jEEv10PUD_STATUSRKT_EUlvE0_EEvS8_>:
    9344:	e92d4800 	push	{fp, lr}
    9348:	e28db004 	add	fp, sp, #4
    934c:	e24dd008 	sub	sp, sp, #8
    9350:	e50b0008 	str	r0, [fp, #-8]
    9354:	e51b0008 	ldr	r0, [fp, #-8]
    9358:	ebffff50 	bl	90a0 <_ZZNK4GPIO12pull_up_downIA28_jEEv10PUD_STATUSRKT_ENKUlvE0_clEv>
    935c:	e51b0008 	ldr	r0, [fp, #-8]
    9360:	eb00000d 	bl	939c <_ZN6UnrollILj146EE4callIZNK4GPIO12pull_up_downIA28_jEEv10PUD_STATUSRKT_EUlvE0_EEvS8_>
    9364:	e320f000 	nop	{0}
    9368:	e24bd004 	sub	sp, fp, #4
    936c:	e8bd8800 	pop	{fp, pc}

00009370 <_ZN6UnrollILj146EE4callIZNK4GPIO12pull_up_downIA28_jEEv10PUD_STATUSRKT_EUlvE_EEvS8_>:
    9370:	e92d4800 	push	{fp, lr}
    9374:	e28db004 	add	fp, sp, #4
    9378:	e24dd008 	sub	sp, sp, #8
    937c:	e50b0008 	str	r0, [fp, #-8]
    9380:	e51b0008 	ldr	r0, [fp, #-8]
    9384:	ebffff37 	bl	9068 <_ZZNK4GPIO12pull_up_downIA28_jEEv10PUD_STATUSRKT_ENKUlvE_clEv>
    9388:	e51b0008 	ldr	r0, [fp, #-8]
    938c:	eb00000d 	bl	93c8 <_ZN6UnrollILj145EE4callIZNK4GPIO12pull_up_downIA28_jEEv10PUD_STATUSRKT_EUlvE_EEvS8_>
    9390:	e320f000 	nop	{0}
    9394:	e24bd004 	sub	sp, fp, #4
    9398:	e8bd8800 	pop	{fp, pc}

0000939c <_ZN6UnrollILj146EE4callIZNK4GPIO12pull_up_downIA28_jEEv10PUD_STATUSRKT_EUlvE0_EEvS8_>:
    939c:	e92d4800 	push	{fp, lr}
    93a0:	e28db004 	add	fp, sp, #4
    93a4:	e24dd008 	sub	sp, sp, #8
    93a8:	e50b0008 	str	r0, [fp, #-8]
    93ac:	e51b0008 	ldr	r0, [fp, #-8]
    93b0:	ebffff3a 	bl	90a0 <_ZZNK4GPIO12pull_up_downIA28_jEEv10PUD_STATUSRKT_ENKUlvE0_clEv>
    93b4:	e51b0008 	ldr	r0, [fp, #-8]
    93b8:	eb00000d 	bl	93f4 <_ZN6UnrollILj145EE4callIZNK4GPIO12pull_up_downIA28_jEEv10PUD_STATUSRKT_EUlvE0_EEvS8_>
    93bc:	e320f000 	nop	{0}
    93c0:	e24bd004 	sub	sp, fp, #4
    93c4:	e8bd8800 	pop	{fp, pc}

000093c8 <_ZN6UnrollILj145EE4callIZNK4GPIO12pull_up_downIA28_jEEv10PUD_STATUSRKT_EUlvE_EEvS8_>:
    93c8:	e92d4800 	push	{fp, lr}
    93cc:	e28db004 	add	fp, sp, #4
    93d0:	e24dd008 	sub	sp, sp, #8
    93d4:	e50b0008 	str	r0, [fp, #-8]
    93d8:	e51b0008 	ldr	r0, [fp, #-8]
    93dc:	ebffff21 	bl	9068 <_ZZNK4GPIO12pull_up_downIA28_jEEv10PUD_STATUSRKT_ENKUlvE_clEv>
    93e0:	e51b0008 	ldr	r0, [fp, #-8]
    93e4:	eb00000d 	bl	9420 <_ZN6UnrollILj144EE4callIZNK4GPIO12pull_up_downIA28_jEEv10PUD_STATUSRKT_EUlvE_EEvS8_>
    93e8:	e320f000 	nop	{0}
    93ec:	e24bd004 	sub	sp, fp, #4
    93f0:	e8bd8800 	pop	{fp, pc}

000093f4 <_ZN6UnrollILj145EE4callIZNK4GPIO12pull_up_downIA28_jEEv10PUD_STATUSRKT_EUlvE0_EEvS8_>:
    93f4:	e92d4800 	push	{fp, lr}
    93f8:	e28db004 	add	fp, sp, #4
    93fc:	e24dd008 	sub	sp, sp, #8
    9400:	e50b0008 	str	r0, [fp, #-8]
    9404:	e51b0008 	ldr	r0, [fp, #-8]
    9408:	ebffff24 	bl	90a0 <_ZZNK4GPIO12pull_up_downIA28_jEEv10PUD_STATUSRKT_ENKUlvE0_clEv>
    940c:	e51b0008 	ldr	r0, [fp, #-8]
    9410:	eb00000d 	bl	944c <_ZN6UnrollILj144EE4callIZNK4GPIO12pull_up_downIA28_jEEv10PUD_STATUSRKT_EUlvE0_EEvS8_>
    9414:	e320f000 	nop	{0}
    9418:	e24bd004 	sub	sp, fp, #4
    941c:	e8bd8800 	pop	{fp, pc}

00009420 <_ZN6UnrollILj144EE4callIZNK4GPIO12pull_up_downIA28_jEEv10PUD_STATUSRKT_EUlvE_EEvS8_>:
    9420:	e92d4800 	push	{fp, lr}
    9424:	e28db004 	add	fp, sp, #4
    9428:	e24dd008 	sub	sp, sp, #8
    942c:	e50b0008 	str	r0, [fp, #-8]
    9430:	e51b0008 	ldr	r0, [fp, #-8]
    9434:	ebffff0b 	bl	9068 <_ZZNK4GPIO12pull_up_downIA28_jEEv10PUD_STATUSRKT_ENKUlvE_clEv>
    9438:	e51b0008 	ldr	r0, [fp, #-8]
    943c:	eb00000d 	bl	9478 <_ZN6UnrollILj143EE4callIZNK4GPIO12pull_up_downIA28_jEEv10PUD_STATUSRKT_EUlvE_EEvS8_>
    9440:	e320f000 	nop	{0}
    9444:	e24bd004 	sub	sp, fp, #4
    9448:	e8bd8800 	pop	{fp, pc}

0000944c <_ZN6UnrollILj144EE4callIZNK4GPIO12pull_up_downIA28_jEEv10PUD_STATUSRKT_EUlvE0_EEvS8_>:
    944c:	e92d4800 	push	{fp, lr}
    9450:	e28db004 	add	fp, sp, #4
    9454:	e24dd008 	sub	sp, sp, #8
    9458:	e50b0008 	str	r0, [fp, #-8]
    945c:	e51b0008 	ldr	r0, [fp, #-8]
    9460:	ebffff0e 	bl	90a0 <_ZZNK4GPIO12pull_up_downIA28_jEEv10PUD_STATUSRKT_ENKUlvE0_clEv>
    9464:	e51b0008 	ldr	r0, [fp, #-8]
    9468:	eb00000d 	bl	94a4 <_ZN6UnrollILj143EE4callIZNK4GPIO12pull_up_downIA28_jEEv10PUD_STATUSRKT_EUlvE0_EEvS8_>
    946c:	e320f000 	nop	{0}
    9470:	e24bd004 	sub	sp, fp, #4
    9474:	e8bd8800 	pop	{fp, pc}

00009478 <_ZN6UnrollILj143EE4callIZNK4GPIO12pull_up_downIA28_jEEv10PUD_STATUSRKT_EUlvE_EEvS8_>:
    9478:	e92d4800 	push	{fp, lr}
    947c:	e28db004 	add	fp, sp, #4
    9480:	e24dd008 	sub	sp, sp, #8
    9484:	e50b0008 	str	r0, [fp, #-8]
    9488:	e51b0008 	ldr	r0, [fp, #-8]
    948c:	ebfffef5 	bl	9068 <_ZZNK4GPIO12pull_up_downIA28_jEEv10PUD_STATUSRKT_ENKUlvE_clEv>
    9490:	e51b0008 	ldr	r0, [fp, #-8]
    9494:	eb00000d 	bl	94d0 <_ZN6UnrollILj142EE4callIZNK4GPIO12pull_up_downIA28_jEEv10PUD_STATUSRKT_EUlvE_EEvS8_>
    9498:	e320f000 	nop	{0}
    949c:	e24bd004 	sub	sp, fp, #4
    94a0:	e8bd8800 	pop	{fp, pc}

000094a4 <_ZN6UnrollILj143EE4callIZNK4GPIO12pull_up_downIA28_jEEv10PUD_STATUSRKT_EUlvE0_EEvS8_>:
    94a4:	e92d4800 	push	{fp, lr}
    94a8:	e28db004 	add	fp, sp, #4
    94ac:	e24dd008 	sub	sp, sp, #8
    94b0:	e50b0008 	str	r0, [fp, #-8]
    94b4:	e51b0008 	ldr	r0, [fp, #-8]
    94b8:	ebfffef8 	bl	90a0 <_ZZNK4GPIO12pull_up_downIA28_jEEv10PUD_STATUSRKT_ENKUlvE0_clEv>
    94bc:	e51b0008 	ldr	r0, [fp, #-8]
    94c0:	eb00000d 	bl	94fc <_ZN6UnrollILj142EE4callIZNK4GPIO12pull_up_downIA28_jEEv10PUD_STATUSRKT_EUlvE0_EEvS8_>
    94c4:	e320f000 	nop	{0}
    94c8:	e24bd004 	sub	sp, fp, #4
    94cc:	e8bd8800 	pop	{fp, pc}

000094d0 <_ZN6UnrollILj142EE4callIZNK4GPIO12pull_up_downIA28_jEEv10PUD_STATUSRKT_EUlvE_EEvS8_>:
    94d0:	e92d4800 	push	{fp, lr}
    94d4:	e28db004 	add	fp, sp, #4
    94d8:	e24dd008 	sub	sp, sp, #8
    94dc:	e50b0008 	str	r0, [fp, #-8]
    94e0:	e51b0008 	ldr	r0, [fp, #-8]
    94e4:	ebfffedf 	bl	9068 <_ZZNK4GPIO12pull_up_downIA28_jEEv10PUD_STATUSRKT_ENKUlvE_clEv>
    94e8:	e51b0008 	ldr	r0, [fp, #-8]
    94ec:	eb00000d 	bl	9528 <_ZN6UnrollILj141EE4callIZNK4GPIO12pull_up_downIA28_jEEv10PUD_STATUSRKT_EUlvE_EEvS8_>
    94f0:	e320f000 	nop	{0}
    94f4:	e24bd004 	sub	sp, fp, #4
    94f8:	e8bd8800 	pop	{fp, pc}

000094fc <_ZN6UnrollILj142EE4callIZNK4GPIO12pull_up_downIA28_jEEv10PUD_STATUSRKT_EUlvE0_EEvS8_>:
    94fc:	e92d4800 	push	{fp, lr}
    9500:	e28db004 	add	fp, sp, #4
    9504:	e24dd008 	sub	sp, sp, #8
    9508:	e50b0008 	str	r0, [fp, #-8]
    950c:	e51b0008 	ldr	r0, [fp, #-8]
    9510:	ebfffee2 	bl	90a0 <_ZZNK4GPIO12pull_up_downIA28_jEEv10PUD_STATUSRKT_ENKUlvE0_clEv>
    9514:	e51b0008 	ldr	r0, [fp, #-8]
    9518:	eb00000d 	bl	9554 <_ZN6UnrollILj141EE4callIZNK4GPIO12pull_up_downIA28_jEEv10PUD_STATUSRKT_EUlvE0_EEvS8_>
    951c:	e320f000 	nop	{0}
    9520:	e24bd004 	sub	sp, fp, #4
    9524:	e8bd8800 	pop	{fp, pc}

00009528 <_ZN6UnrollILj141EE4callIZNK4GPIO12pull_up_downIA28_jEEv10PUD_STATUSRKT_EUlvE_EEvS8_>:
    9528:	e92d4800 	push	{fp, lr}
    952c:	e28db004 	add	fp, sp, #4
    9530:	e24dd008 	sub	sp, sp, #8
    9534:	e50b0008 	str	r0, [fp, #-8]
    9538:	e51b0008 	ldr	r0, [fp, #-8]
    953c:	ebfffec9 	bl	9068 <_ZZNK4GPIO12pull_up_downIA28_jEEv10PUD_STATUSRKT_ENKUlvE_clEv>
    9540:	e51b0008 	ldr	r0, [fp, #-8]
    9544:	eb00000d 	bl	9580 <_ZN6UnrollILj140EE4callIZNK4GPIO12pull_up_downIA28_jEEv10PUD_STATUSRKT_EUlvE_EEvS8_>
    9548:	e320f000 	nop	{0}
    954c:	e24bd004 	sub	sp, fp, #4
    9550:	e8bd8800 	pop	{fp, pc}

00009554 <_ZN6UnrollILj141EE4callIZNK4GPIO12pull_up_downIA28_jEEv10PUD_STATUSRKT_EUlvE0_EEvS8_>:
    9554:	e92d4800 	push	{fp, lr}
    9558:	e28db004 	add	fp, sp, #4
    955c:	e24dd008 	sub	sp, sp, #8
    9560:	e50b0008 	str	r0, [fp, #-8]
    9564:	e51b0008 	ldr	r0, [fp, #-8]
    9568:	ebfffecc 	bl	90a0 <_ZZNK4GPIO12pull_up_downIA28_jEEv10PUD_STATUSRKT_ENKUlvE0_clEv>
    956c:	e51b0008 	ldr	r0, [fp, #-8]
    9570:	eb00000d 	bl	95ac <_ZN6UnrollILj140EE4callIZNK4GPIO12pull_up_downIA28_jEEv10PUD_STATUSRKT_EUlvE0_EEvS8_>
    9574:	e320f000 	nop	{0}
    9578:	e24bd004 	sub	sp, fp, #4
    957c:	e8bd8800 	pop	{fp, pc}

00009580 <_ZN6UnrollILj140EE4callIZNK4GPIO12pull_up_downIA28_jEEv10PUD_STATUSRKT_EUlvE_EEvS8_>:
    9580:	e92d4800 	push	{fp, lr}
    9584:	e28db004 	add	fp, sp, #4
    9588:	e24dd008 	sub	sp, sp, #8
    958c:	e50b0008 	str	r0, [fp, #-8]
    9590:	e51b0008 	ldr	r0, [fp, #-8]
    9594:	ebfffeb3 	bl	9068 <_ZZNK4GPIO12pull_up_downIA28_jEEv10PUD_STATUSRKT_ENKUlvE_clEv>
    9598:	e51b0008 	ldr	r0, [fp, #-8]
    959c:	eb00000d 	bl	95d8 <_ZN6UnrollILj139EE4callIZNK4GPIO12pull_up_downIA28_jEEv10PUD_STATUSRKT_EUlvE_EEvS8_>
    95a0:	e320f000 	nop	{0}
    95a4:	e24bd004 	sub	sp, fp, #4
    95a8:	e8bd8800 	pop	{fp, pc}

000095ac <_ZN6UnrollILj140EE4callIZNK4GPIO12pull_up_downIA28_jEEv10PUD_STATUSRKT_EUlvE0_EEvS8_>:
    95ac:	e92d4800 	push	{fp, lr}
    95b0:	e28db004 	add	fp, sp, #4
    95b4:	e24dd008 	sub	sp, sp, #8
    95b8:	e50b0008 	str	r0, [fp, #-8]
    95bc:	e51b0008 	ldr	r0, [fp, #-8]
    95c0:	ebfffeb6 	bl	90a0 <_ZZNK4GPIO12pull_up_downIA28_jEEv10PUD_STATUSRKT_ENKUlvE0_clEv>
    95c4:	e51b0008 	ldr	r0, [fp, #-8]
    95c8:	eb00000d 	bl	9604 <_ZN6UnrollILj139EE4callIZNK4GPIO12pull_up_downIA28_jEEv10PUD_STATUSRKT_EUlvE0_EEvS8_>
    95cc:	e320f000 	nop	{0}
    95d0:	e24bd004 	sub	sp, fp, #4
    95d4:	e8bd8800 	pop	{fp, pc}

000095d8 <_ZN6UnrollILj139EE4callIZNK4GPIO12pull_up_downIA28_jEEv10PUD_STATUSRKT_EUlvE_EEvS8_>:
    95d8:	e92d4800 	push	{fp, lr}
    95dc:	e28db004 	add	fp, sp, #4
    95e0:	e24dd008 	sub	sp, sp, #8
    95e4:	e50b0008 	str	r0, [fp, #-8]
    95e8:	e51b0008 	ldr	r0, [fp, #-8]
    95ec:	ebfffe9d 	bl	9068 <_ZZNK4GPIO12pull_up_downIA28_jEEv10PUD_STATUSRKT_ENKUlvE_clEv>
    95f0:	e51b0008 	ldr	r0, [fp, #-8]
    95f4:	eb00000d 	bl	9630 <_ZN6UnrollILj138EE4callIZNK4GPIO12pull_up_downIA28_jEEv10PUD_STATUSRKT_EUlvE_EEvS8_>
    95f8:	e320f000 	nop	{0}
    95fc:	e24bd004 	sub	sp, fp, #4
    9600:	e8bd8800 	pop	{fp, pc}

00009604 <_ZN6UnrollILj139EE4callIZNK4GPIO12pull_up_downIA28_jEEv10PUD_STATUSRKT_EUlvE0_EEvS8_>:
    9604:	e92d4800 	push	{fp, lr}
    9608:	e28db004 	add	fp, sp, #4
    960c:	e24dd008 	sub	sp, sp, #8
    9610:	e50b0008 	str	r0, [fp, #-8]
    9614:	e51b0008 	ldr	r0, [fp, #-8]
    9618:	ebfffea0 	bl	90a0 <_ZZNK4GPIO12pull_up_downIA28_jEEv10PUD_STATUSRKT_ENKUlvE0_clEv>
    961c:	e51b0008 	ldr	r0, [fp, #-8]
    9620:	eb00000d 	bl	965c <_ZN6UnrollILj138EE4callIZNK4GPIO12pull_up_downIA28_jEEv10PUD_STATUSRKT_EUlvE0_EEvS8_>
    9624:	e320f000 	nop	{0}
    9628:	e24bd004 	sub	sp, fp, #4
    962c:	e8bd8800 	pop	{fp, pc}

00009630 <_ZN6UnrollILj138EE4callIZNK4GPIO12pull_up_downIA28_jEEv10PUD_STATUSRKT_EUlvE_EEvS8_>:
    9630:	e92d4800 	push	{fp, lr}
    9634:	e28db004 	add	fp, sp, #4
    9638:	e24dd008 	sub	sp, sp, #8
    963c:	e50b0008 	str	r0, [fp, #-8]
    9640:	e51b0008 	ldr	r0, [fp, #-8]
    9644:	ebfffe87 	bl	9068 <_ZZNK4GPIO12pull_up_downIA28_jEEv10PUD_STATUSRKT_ENKUlvE_clEv>
    9648:	e51b0008 	ldr	r0, [fp, #-8]
    964c:	eb00000d 	bl	9688 <_ZN6UnrollILj137EE4callIZNK4GPIO12pull_up_downIA28_jEEv10PUD_STATUSRKT_EUlvE_EEvS8_>
    9650:	e320f000 	nop	{0}
    9654:	e24bd004 	sub	sp, fp, #4
    9658:	e8bd8800 	pop	{fp, pc}

0000965c <_ZN6UnrollILj138EE4callIZNK4GPIO12pull_up_downIA28_jEEv10PUD_STATUSRKT_EUlvE0_EEvS8_>:
    965c:	e92d4800 	push	{fp, lr}
    9660:	e28db004 	add	fp, sp, #4
    9664:	e24dd008 	sub	sp, sp, #8
    9668:	e50b0008 	str	r0, [fp, #-8]
    966c:	e51b0008 	ldr	r0, [fp, #-8]
    9670:	ebfffe8a 	bl	90a0 <_ZZNK4GPIO12pull_up_downIA28_jEEv10PUD_STATUSRKT_ENKUlvE0_clEv>
    9674:	e51b0008 	ldr	r0, [fp, #-8]
    9678:	eb00000d 	bl	96b4 <_ZN6UnrollILj137EE4callIZNK4GPIO12pull_up_downIA28_jEEv10PUD_STATUSRKT_EUlvE0_EEvS8_>
    967c:	e320f000 	nop	{0}
    9680:	e24bd004 	sub	sp, fp, #4
    9684:	e8bd8800 	pop	{fp, pc}

00009688 <_ZN6UnrollILj137EE4callIZNK4GPIO12pull_up_downIA28_jEEv10PUD_STATUSRKT_EUlvE_EEvS8_>:
    9688:	e92d4800 	push	{fp, lr}
    968c:	e28db004 	add	fp, sp, #4
    9690:	e24dd008 	sub	sp, sp, #8
    9694:	e50b0008 	str	r0, [fp, #-8]
    9698:	e51b0008 	ldr	r0, [fp, #-8]
    969c:	ebfffe71 	bl	9068 <_ZZNK4GPIO12pull_up_downIA28_jEEv10PUD_STATUSRKT_ENKUlvE_clEv>
    96a0:	e51b0008 	ldr	r0, [fp, #-8]
    96a4:	eb00000d 	bl	96e0 <_ZN6UnrollILj136EE4callIZNK4GPIO12pull_up_downIA28_jEEv10PUD_STATUSRKT_EUlvE_EEvS8_>
    96a8:	e320f000 	nop	{0}
    96ac:	e24bd004 	sub	sp, fp, #4
    96b0:	e8bd8800 	pop	{fp, pc}

000096b4 <_ZN6UnrollILj137EE4callIZNK4GPIO12pull_up_downIA28_jEEv10PUD_STATUSRKT_EUlvE0_EEvS8_>:
    96b4:	e92d4800 	push	{fp, lr}
    96b8:	e28db004 	add	fp, sp, #4
    96bc:	e24dd008 	sub	sp, sp, #8
    96c0:	e50b0008 	str	r0, [fp, #-8]
    96c4:	e51b0008 	ldr	r0, [fp, #-8]
    96c8:	ebfffe74 	bl	90a0 <_ZZNK4GPIO12pull_up_downIA28_jEEv10PUD_STATUSRKT_ENKUlvE0_clEv>
    96cc:	e51b0008 	ldr	r0, [fp, #-8]
    96d0:	eb00000d 	bl	970c <_ZN6UnrollILj136EE4callIZNK4GPIO12pull_up_downIA28_jEEv10PUD_STATUSRKT_EUlvE0_EEvS8_>
    96d4:	e320f000 	nop	{0}
    96d8:	e24bd004 	sub	sp, fp, #4
    96dc:	e8bd8800 	pop	{fp, pc}

000096e0 <_ZN6UnrollILj136EE4callIZNK4GPIO12pull_up_downIA28_jEEv10PUD_STATUSRKT_EUlvE_EEvS8_>:
    96e0:	e92d4800 	push	{fp, lr}
    96e4:	e28db004 	add	fp, sp, #4
    96e8:	e24dd008 	sub	sp, sp, #8
    96ec:	e50b0008 	str	r0, [fp, #-8]
    96f0:	e51b0008 	ldr	r0, [fp, #-8]
    96f4:	ebfffe5b 	bl	9068 <_ZZNK4GPIO12pull_up_downIA28_jEEv10PUD_STATUSRKT_ENKUlvE_clEv>
    96f8:	e51b0008 	ldr	r0, [fp, #-8]
    96fc:	eb00000d 	bl	9738 <_ZN6UnrollILj135EE4callIZNK4GPIO12pull_up_downIA28_jEEv10PUD_STATUSRKT_EUlvE_EEvS8_>
    9700:	e320f000 	nop	{0}
    9704:	e24bd004 	sub	sp, fp, #4
    9708:	e8bd8800 	pop	{fp, pc}

0000970c <_ZN6UnrollILj136EE4callIZNK4GPIO12pull_up_downIA28_jEEv10PUD_STATUSRKT_EUlvE0_EEvS8_>:
    970c:	e92d4800 	push	{fp, lr}
    9710:	e28db004 	add	fp, sp, #4
    9714:	e24dd008 	sub	sp, sp, #8
    9718:	e50b0008 	str	r0, [fp, #-8]
    971c:	e51b0008 	ldr	r0, [fp, #-8]
    9720:	ebfffe5e 	bl	90a0 <_ZZNK4GPIO12pull_up_downIA28_jEEv10PUD_STATUSRKT_ENKUlvE0_clEv>
    9724:	e51b0008 	ldr	r0, [fp, #-8]
    9728:	eb00000d 	bl	9764 <_ZN6UnrollILj135EE4callIZNK4GPIO12pull_up_downIA28_jEEv10PUD_STATUSRKT_EUlvE0_EEvS8_>
    972c:	e320f000 	nop	{0}
    9730:	e24bd004 	sub	sp, fp, #4
    9734:	e8bd8800 	pop	{fp, pc}

00009738 <_ZN6UnrollILj135EE4callIZNK4GPIO12pull_up_downIA28_jEEv10PUD_STATUSRKT_EUlvE_EEvS8_>:
    9738:	e92d4800 	push	{fp, lr}
    973c:	e28db004 	add	fp, sp, #4
    9740:	e24dd008 	sub	sp, sp, #8
    9744:	e50b0008 	str	r0, [fp, #-8]
    9748:	e51b0008 	ldr	r0, [fp, #-8]
    974c:	ebfffe45 	bl	9068 <_ZZNK4GPIO12pull_up_downIA28_jEEv10PUD_STATUSRKT_ENKUlvE_clEv>
    9750:	e51b0008 	ldr	r0, [fp, #-8]
    9754:	eb00000d 	bl	9790 <_ZN6UnrollILj134EE4callIZNK4GPIO12pull_up_downIA28_jEEv10PUD_STATUSRKT_EUlvE_EEvS8_>
    9758:	e320f000 	nop	{0}
    975c:	e24bd004 	sub	sp, fp, #4
    9760:	e8bd8800 	pop	{fp, pc}

00009764 <_ZN6UnrollILj135EE4callIZNK4GPIO12pull_up_downIA28_jEEv10PUD_STATUSRKT_EUlvE0_EEvS8_>:
    9764:	e92d4800 	push	{fp, lr}
    9768:	e28db004 	add	fp, sp, #4
    976c:	e24dd008 	sub	sp, sp, #8
    9770:	e50b0008 	str	r0, [fp, #-8]
    9774:	e51b0008 	ldr	r0, [fp, #-8]
    9778:	ebfffe48 	bl	90a0 <_ZZNK4GPIO12pull_up_downIA28_jEEv10PUD_STATUSRKT_ENKUlvE0_clEv>
    977c:	e51b0008 	ldr	r0, [fp, #-8]
    9780:	eb00000d 	bl	97bc <_ZN6UnrollILj134EE4callIZNK4GPIO12pull_up_downIA28_jEEv10PUD_STATUSRKT_EUlvE0_EEvS8_>
    9784:	e320f000 	nop	{0}
    9788:	e24bd004 	sub	sp, fp, #4
    978c:	e8bd8800 	pop	{fp, pc}

00009790 <_ZN6UnrollILj134EE4callIZNK4GPIO12pull_up_downIA28_jEEv10PUD_STATUSRKT_EUlvE_EEvS8_>:
    9790:	e92d4800 	push	{fp, lr}
    9794:	e28db004 	add	fp, sp, #4
    9798:	e24dd008 	sub	sp, sp, #8
    979c:	e50b0008 	str	r0, [fp, #-8]
    97a0:	e51b0008 	ldr	r0, [fp, #-8]
    97a4:	ebfffe2f 	bl	9068 <_ZZNK4GPIO12pull_up_downIA28_jEEv10PUD_STATUSRKT_ENKUlvE_clEv>
    97a8:	e51b0008 	ldr	r0, [fp, #-8]
    97ac:	eb00000d 	bl	97e8 <_ZN6UnrollILj133EE4callIZNK4GPIO12pull_up_downIA28_jEEv10PUD_STATUSRKT_EUlvE_EEvS8_>
    97b0:	e320f000 	nop	{0}
    97b4:	e24bd004 	sub	sp, fp, #4
    97b8:	e8bd8800 	pop	{fp, pc}

000097bc <_ZN6UnrollILj134EE4callIZNK4GPIO12pull_up_downIA28_jEEv10PUD_STATUSRKT_EUlvE0_EEvS8_>:
    97bc:	e92d4800 	push	{fp, lr}
    97c0:	e28db004 	add	fp, sp, #4
    97c4:	e24dd008 	sub	sp, sp, #8
    97c8:	e50b0008 	str	r0, [fp, #-8]
    97cc:	e51b0008 	ldr	r0, [fp, #-8]
    97d0:	ebfffe32 	bl	90a0 <_ZZNK4GPIO12pull_up_downIA28_jEEv10PUD_STATUSRKT_ENKUlvE0_clEv>
    97d4:	e51b0008 	ldr	r0, [fp, #-8]
    97d8:	eb00000d 	bl	9814 <_ZN6UnrollILj133EE4callIZNK4GPIO12pull_up_downIA28_jEEv10PUD_STATUSRKT_EUlvE0_EEvS8_>
    97dc:	e320f000 	nop	{0}
    97e0:	e24bd004 	sub	sp, fp, #4
    97e4:	e8bd8800 	pop	{fp, pc}

000097e8 <_ZN6UnrollILj133EE4callIZNK4GPIO12pull_up_downIA28_jEEv10PUD_STATUSRKT_EUlvE_EEvS8_>:
    97e8:	e92d4800 	push	{fp, lr}
    97ec:	e28db004 	add	fp, sp, #4
    97f0:	e24dd008 	sub	sp, sp, #8
    97f4:	e50b0008 	str	r0, [fp, #-8]
    97f8:	e51b0008 	ldr	r0, [fp, #-8]
    97fc:	ebfffe19 	bl	9068 <_ZZNK4GPIO12pull_up_downIA28_jEEv10PUD_STATUSRKT_ENKUlvE_clEv>
    9800:	e51b0008 	ldr	r0, [fp, #-8]
    9804:	eb00000d 	bl	9840 <_ZN6UnrollILj132EE4callIZNK4GPIO12pull_up_downIA28_jEEv10PUD_STATUSRKT_EUlvE_EEvS8_>
    9808:	e320f000 	nop	{0}
    980c:	e24bd004 	sub	sp, fp, #4
    9810:	e8bd8800 	pop	{fp, pc}

00009814 <_ZN6UnrollILj133EE4callIZNK4GPIO12pull_up_downIA28_jEEv10PUD_STATUSRKT_EUlvE0_EEvS8_>:
    9814:	e92d4800 	push	{fp, lr}
    9818:	e28db004 	add	fp, sp, #4
    981c:	e24dd008 	sub	sp, sp, #8
    9820:	e50b0008 	str	r0, [fp, #-8]
    9824:	e51b0008 	ldr	r0, [fp, #-8]
    9828:	ebfffe1c 	bl	90a0 <_ZZNK4GPIO12pull_up_downIA28_jEEv10PUD_STATUSRKT_ENKUlvE0_clEv>
    982c:	e51b0008 	ldr	r0, [fp, #-8]
    9830:	eb00000d 	bl	986c <_ZN6UnrollILj132EE4callIZNK4GPIO12pull_up_downIA28_jEEv10PUD_STATUSRKT_EUlvE0_EEvS8_>
    9834:	e320f000 	nop	{0}
    9838:	e24bd004 	sub	sp, fp, #4
    983c:	e8bd8800 	pop	{fp, pc}

00009840 <_ZN6UnrollILj132EE4callIZNK4GPIO12pull_up_downIA28_jEEv10PUD_STATUSRKT_EUlvE_EEvS8_>:
    9840:	e92d4800 	push	{fp, lr}
    9844:	e28db004 	add	fp, sp, #4
    9848:	e24dd008 	sub	sp, sp, #8
    984c:	e50b0008 	str	r0, [fp, #-8]
    9850:	e51b0008 	ldr	r0, [fp, #-8]
    9854:	ebfffe03 	bl	9068 <_ZZNK4GPIO12pull_up_downIA28_jEEv10PUD_STATUSRKT_ENKUlvE_clEv>
    9858:	e51b0008 	ldr	r0, [fp, #-8]
    985c:	eb00000d 	bl	9898 <_ZN6UnrollILj131EE4callIZNK4GPIO12pull_up_downIA28_jEEv10PUD_STATUSRKT_EUlvE_EEvS8_>
    9860:	e320f000 	nop	{0}
    9864:	e24bd004 	sub	sp, fp, #4
    9868:	e8bd8800 	pop	{fp, pc}

0000986c <_ZN6UnrollILj132EE4callIZNK4GPIO12pull_up_downIA28_jEEv10PUD_STATUSRKT_EUlvE0_EEvS8_>:
    986c:	e92d4800 	push	{fp, lr}
    9870:	e28db004 	add	fp, sp, #4
    9874:	e24dd008 	sub	sp, sp, #8
    9878:	e50b0008 	str	r0, [fp, #-8]
    987c:	e51b0008 	ldr	r0, [fp, #-8]
    9880:	ebfffe06 	bl	90a0 <_ZZNK4GPIO12pull_up_downIA28_jEEv10PUD_STATUSRKT_ENKUlvE0_clEv>
    9884:	e51b0008 	ldr	r0, [fp, #-8]
    9888:	eb00000d 	bl	98c4 <_ZN6UnrollILj131EE4callIZNK4GPIO12pull_up_downIA28_jEEv10PUD_STATUSRKT_EUlvE0_EEvS8_>
    988c:	e320f000 	nop	{0}
    9890:	e24bd004 	sub	sp, fp, #4
    9894:	e8bd8800 	pop	{fp, pc}

00009898 <_ZN6UnrollILj131EE4callIZNK4GPIO12pull_up_downIA28_jEEv10PUD_STATUSRKT_EUlvE_EEvS8_>:
    9898:	e92d4800 	push	{fp, lr}
    989c:	e28db004 	add	fp, sp, #4
    98a0:	e24dd008 	sub	sp, sp, #8
    98a4:	e50b0008 	str	r0, [fp, #-8]
    98a8:	e51b0008 	ldr	r0, [fp, #-8]
    98ac:	ebfffded 	bl	9068 <_ZZNK4GPIO12pull_up_downIA28_jEEv10PUD_STATUSRKT_ENKUlvE_clEv>
    98b0:	e51b0008 	ldr	r0, [fp, #-8]
    98b4:	eb00000d 	bl	98f0 <_ZN6UnrollILj130EE4callIZNK4GPIO12pull_up_downIA28_jEEv10PUD_STATUSRKT_EUlvE_EEvS8_>
    98b8:	e320f000 	nop	{0}
    98bc:	e24bd004 	sub	sp, fp, #4
    98c0:	e8bd8800 	pop	{fp, pc}

000098c4 <_ZN6UnrollILj131EE4callIZNK4GPIO12pull_up_downIA28_jEEv10PUD_STATUSRKT_EUlvE0_EEvS8_>:
    98c4:	e92d4800 	push	{fp, lr}
    98c8:	e28db004 	add	fp, sp, #4
    98cc:	e24dd008 	sub	sp, sp, #8
    98d0:	e50b0008 	str	r0, [fp, #-8]
    98d4:	e51b0008 	ldr	r0, [fp, #-8]
    98d8:	ebfffdf0 	bl	90a0 <_ZZNK4GPIO12pull_up_downIA28_jEEv10PUD_STATUSRKT_ENKUlvE0_clEv>
    98dc:	e51b0008 	ldr	r0, [fp, #-8]
    98e0:	eb00000d 	bl	991c <_ZN6UnrollILj130EE4callIZNK4GPIO12pull_up_downIA28_jEEv10PUD_STATUSRKT_EUlvE0_EEvS8_>
    98e4:	e320f000 	nop	{0}
    98e8:	e24bd004 	sub	sp, fp, #4
    98ec:	e8bd8800 	pop	{fp, pc}

000098f0 <_ZN6UnrollILj130EE4callIZNK4GPIO12pull_up_downIA28_jEEv10PUD_STATUSRKT_EUlvE_EEvS8_>:
    98f0:	e92d4800 	push	{fp, lr}
    98f4:	e28db004 	add	fp, sp, #4
    98f8:	e24dd008 	sub	sp, sp, #8
    98fc:	e50b0008 	str	r0, [fp, #-8]
    9900:	e51b0008 	ldr	r0, [fp, #-8]
    9904:	ebfffdd7 	bl	9068 <_ZZNK4GPIO12pull_up_downIA28_jEEv10PUD_STATUSRKT_ENKUlvE_clEv>
    9908:	e51b0008 	ldr	r0, [fp, #-8]
    990c:	eb00000d 	bl	9948 <_ZN6UnrollILj129EE4callIZNK4GPIO12pull_up_downIA28_jEEv10PUD_STATUSRKT_EUlvE_EEvS8_>
    9910:	e320f000 	nop	{0}
    9914:	e24bd004 	sub	sp, fp, #4
    9918:	e8bd8800 	pop	{fp, pc}

0000991c <_ZN6UnrollILj130EE4callIZNK4GPIO12pull_up_downIA28_jEEv10PUD_STATUSRKT_EUlvE0_EEvS8_>:
    991c:	e92d4800 	push	{fp, lr}
    9920:	e28db004 	add	fp, sp, #4
    9924:	e24dd008 	sub	sp, sp, #8
    9928:	e50b0008 	str	r0, [fp, #-8]
    992c:	e51b0008 	ldr	r0, [fp, #-8]
    9930:	ebfffdda 	bl	90a0 <_ZZNK4GPIO12pull_up_downIA28_jEEv10PUD_STATUSRKT_ENKUlvE0_clEv>
    9934:	e51b0008 	ldr	r0, [fp, #-8]
    9938:	eb00000d 	bl	9974 <_ZN6UnrollILj129EE4callIZNK4GPIO12pull_up_downIA28_jEEv10PUD_STATUSRKT_EUlvE0_EEvS8_>
    993c:	e320f000 	nop	{0}
    9940:	e24bd004 	sub	sp, fp, #4
    9944:	e8bd8800 	pop	{fp, pc}

00009948 <_ZN6UnrollILj129EE4callIZNK4GPIO12pull_up_downIA28_jEEv10PUD_STATUSRKT_EUlvE_EEvS8_>:
    9948:	e92d4800 	push	{fp, lr}
    994c:	e28db004 	add	fp, sp, #4
    9950:	e24dd008 	sub	sp, sp, #8
    9954:	e50b0008 	str	r0, [fp, #-8]
    9958:	e51b0008 	ldr	r0, [fp, #-8]
    995c:	ebfffdc1 	bl	9068 <_ZZNK4GPIO12pull_up_downIA28_jEEv10PUD_STATUSRKT_ENKUlvE_clEv>
    9960:	e51b0008 	ldr	r0, [fp, #-8]
    9964:	eb00000d 	bl	99a0 <_ZN6UnrollILj128EE4callIZNK4GPIO12pull_up_downIA28_jEEv10PUD_STATUSRKT_EUlvE_EEvS8_>
    9968:	e320f000 	nop	{0}
    996c:	e24bd004 	sub	sp, fp, #4
    9970:	e8bd8800 	pop	{fp, pc}

00009974 <_ZN6UnrollILj129EE4callIZNK4GPIO12pull_up_downIA28_jEEv10PUD_STATUSRKT_EUlvE0_EEvS8_>:
    9974:	e92d4800 	push	{fp, lr}
    9978:	e28db004 	add	fp, sp, #4
    997c:	e24dd008 	sub	sp, sp, #8
    9980:	e50b0008 	str	r0, [fp, #-8]
    9984:	e51b0008 	ldr	r0, [fp, #-8]
    9988:	ebfffdc4 	bl	90a0 <_ZZNK4GPIO12pull_up_downIA28_jEEv10PUD_STATUSRKT_ENKUlvE0_clEv>
    998c:	e51b0008 	ldr	r0, [fp, #-8]
    9990:	eb00000d 	bl	99cc <_ZN6UnrollILj128EE4callIZNK4GPIO12pull_up_downIA28_jEEv10PUD_STATUSRKT_EUlvE0_EEvS8_>
    9994:	e320f000 	nop	{0}
    9998:	e24bd004 	sub	sp, fp, #4
    999c:	e8bd8800 	pop	{fp, pc}

000099a0 <_ZN6UnrollILj128EE4callIZNK4GPIO12pull_up_downIA28_jEEv10PUD_STATUSRKT_EUlvE_EEvS8_>:
    99a0:	e92d4800 	push	{fp, lr}
    99a4:	e28db004 	add	fp, sp, #4
    99a8:	e24dd008 	sub	sp, sp, #8
    99ac:	e50b0008 	str	r0, [fp, #-8]
    99b0:	e51b0008 	ldr	r0, [fp, #-8]
    99b4:	ebfffdab 	bl	9068 <_ZZNK4GPIO12pull_up_downIA28_jEEv10PUD_STATUSRKT_ENKUlvE_clEv>
    99b8:	e51b0008 	ldr	r0, [fp, #-8]
    99bc:	eb00000d 	bl	99f8 <_ZN6UnrollILj127EE4callIZNK4GPIO12pull_up_downIA28_jEEv10PUD_STATUSRKT_EUlvE_EEvS8_>
    99c0:	e320f000 	nop	{0}
    99c4:	e24bd004 	sub	sp, fp, #4
    99c8:	e8bd8800 	pop	{fp, pc}

000099cc <_ZN6UnrollILj128EE4callIZNK4GPIO12pull_up_downIA28_jEEv10PUD_STATUSRKT_EUlvE0_EEvS8_>:
    99cc:	e92d4800 	push	{fp, lr}
    99d0:	e28db004 	add	fp, sp, #4
    99d4:	e24dd008 	sub	sp, sp, #8
    99d8:	e50b0008 	str	r0, [fp, #-8]
    99dc:	e51b0008 	ldr	r0, [fp, #-8]
    99e0:	ebfffdae 	bl	90a0 <_ZZNK4GPIO12pull_up_downIA28_jEEv10PUD_STATUSRKT_ENKUlvE0_clEv>
    99e4:	e51b0008 	ldr	r0, [fp, #-8]
    99e8:	eb00000d 	bl	9a24 <_ZN6UnrollILj127EE4callIZNK4GPIO12pull_up_downIA28_jEEv10PUD_STATUSRKT_EUlvE0_EEvS8_>
    99ec:	e320f000 	nop	{0}
    99f0:	e24bd004 	sub	sp, fp, #4
    99f4:	e8bd8800 	pop	{fp, pc}

000099f8 <_ZN6UnrollILj127EE4callIZNK4GPIO12pull_up_downIA28_jEEv10PUD_STATUSRKT_EUlvE_EEvS8_>:
    99f8:	e92d4800 	push	{fp, lr}
    99fc:	e28db004 	add	fp, sp, #4
    9a00:	e24dd008 	sub	sp, sp, #8
    9a04:	e50b0008 	str	r0, [fp, #-8]
    9a08:	e51b0008 	ldr	r0, [fp, #-8]
    9a0c:	ebfffd95 	bl	9068 <_ZZNK4GPIO12pull_up_downIA28_jEEv10PUD_STATUSRKT_ENKUlvE_clEv>
    9a10:	e51b0008 	ldr	r0, [fp, #-8]
    9a14:	eb00000d 	bl	9a50 <_ZN6UnrollILj126EE4callIZNK4GPIO12pull_up_downIA28_jEEv10PUD_STATUSRKT_EUlvE_EEvS8_>
    9a18:	e320f000 	nop	{0}
    9a1c:	e24bd004 	sub	sp, fp, #4
    9a20:	e8bd8800 	pop	{fp, pc}

00009a24 <_ZN6UnrollILj127EE4callIZNK4GPIO12pull_up_downIA28_jEEv10PUD_STATUSRKT_EUlvE0_EEvS8_>:
    9a24:	e92d4800 	push	{fp, lr}
    9a28:	e28db004 	add	fp, sp, #4
    9a2c:	e24dd008 	sub	sp, sp, #8
    9a30:	e50b0008 	str	r0, [fp, #-8]
    9a34:	e51b0008 	ldr	r0, [fp, #-8]
    9a38:	ebfffd98 	bl	90a0 <_ZZNK4GPIO12pull_up_downIA28_jEEv10PUD_STATUSRKT_ENKUlvE0_clEv>
    9a3c:	e51b0008 	ldr	r0, [fp, #-8]
    9a40:	eb00000d 	bl	9a7c <_ZN6UnrollILj126EE4callIZNK4GPIO12pull_up_downIA28_jEEv10PUD_STATUSRKT_EUlvE0_EEvS8_>
    9a44:	e320f000 	nop	{0}
    9a48:	e24bd004 	sub	sp, fp, #4
    9a4c:	e8bd8800 	pop	{fp, pc}

00009a50 <_ZN6UnrollILj126EE4callIZNK4GPIO12pull_up_downIA28_jEEv10PUD_STATUSRKT_EUlvE_EEvS8_>:
    9a50:	e92d4800 	push	{fp, lr}
    9a54:	e28db004 	add	fp, sp, #4
    9a58:	e24dd008 	sub	sp, sp, #8
    9a5c:	e50b0008 	str	r0, [fp, #-8]
    9a60:	e51b0008 	ldr	r0, [fp, #-8]
    9a64:	ebfffd7f 	bl	9068 <_ZZNK4GPIO12pull_up_downIA28_jEEv10PUD_STATUSRKT_ENKUlvE_clEv>
    9a68:	e51b0008 	ldr	r0, [fp, #-8]
    9a6c:	eb00000d 	bl	9aa8 <_ZN6UnrollILj125EE4callIZNK4GPIO12pull_up_downIA28_jEEv10PUD_STATUSRKT_EUlvE_EEvS8_>
    9a70:	e320f000 	nop	{0}
    9a74:	e24bd004 	sub	sp, fp, #4
    9a78:	e8bd8800 	pop	{fp, pc}

00009a7c <_ZN6UnrollILj126EE4callIZNK4GPIO12pull_up_downIA28_jEEv10PUD_STATUSRKT_EUlvE0_EEvS8_>:
    9a7c:	e92d4800 	push	{fp, lr}
    9a80:	e28db004 	add	fp, sp, #4
    9a84:	e24dd008 	sub	sp, sp, #8
    9a88:	e50b0008 	str	r0, [fp, #-8]
    9a8c:	e51b0008 	ldr	r0, [fp, #-8]
    9a90:	ebfffd82 	bl	90a0 <_ZZNK4GPIO12pull_up_downIA28_jEEv10PUD_STATUSRKT_ENKUlvE0_clEv>
    9a94:	e51b0008 	ldr	r0, [fp, #-8]
    9a98:	eb00000d 	bl	9ad4 <_ZN6UnrollILj125EE4callIZNK4GPIO12pull_up_downIA28_jEEv10PUD_STATUSRKT_EUlvE0_EEvS8_>
    9a9c:	e320f000 	nop	{0}
    9aa0:	e24bd004 	sub	sp, fp, #4
    9aa4:	e8bd8800 	pop	{fp, pc}

00009aa8 <_ZN6UnrollILj125EE4callIZNK4GPIO12pull_up_downIA28_jEEv10PUD_STATUSRKT_EUlvE_EEvS8_>:
    9aa8:	e92d4800 	push	{fp, lr}
    9aac:	e28db004 	add	fp, sp, #4
    9ab0:	e24dd008 	sub	sp, sp, #8
    9ab4:	e50b0008 	str	r0, [fp, #-8]
    9ab8:	e51b0008 	ldr	r0, [fp, #-8]
    9abc:	ebfffd69 	bl	9068 <_ZZNK4GPIO12pull_up_downIA28_jEEv10PUD_STATUSRKT_ENKUlvE_clEv>
    9ac0:	e51b0008 	ldr	r0, [fp, #-8]
    9ac4:	eb00000d 	bl	9b00 <_ZN6UnrollILj124EE4callIZNK4GPIO12pull_up_downIA28_jEEv10PUD_STATUSRKT_EUlvE_EEvS8_>
    9ac8:	e320f000 	nop	{0}
    9acc:	e24bd004 	sub	sp, fp, #4
    9ad0:	e8bd8800 	pop	{fp, pc}

00009ad4 <_ZN6UnrollILj125EE4callIZNK4GPIO12pull_up_downIA28_jEEv10PUD_STATUSRKT_EUlvE0_EEvS8_>:
    9ad4:	e92d4800 	push	{fp, lr}
    9ad8:	e28db004 	add	fp, sp, #4
    9adc:	e24dd008 	sub	sp, sp, #8
    9ae0:	e50b0008 	str	r0, [fp, #-8]
    9ae4:	e51b0008 	ldr	r0, [fp, #-8]
    9ae8:	ebfffd6c 	bl	90a0 <_ZZNK4GPIO12pull_up_downIA28_jEEv10PUD_STATUSRKT_ENKUlvE0_clEv>
    9aec:	e51b0008 	ldr	r0, [fp, #-8]
    9af0:	eb00000d 	bl	9b2c <_ZN6UnrollILj124EE4callIZNK4GPIO12pull_up_downIA28_jEEv10PUD_STATUSRKT_EUlvE0_EEvS8_>
    9af4:	e320f000 	nop	{0}
    9af8:	e24bd004 	sub	sp, fp, #4
    9afc:	e8bd8800 	pop	{fp, pc}

00009b00 <_ZN6UnrollILj124EE4callIZNK4GPIO12pull_up_downIA28_jEEv10PUD_STATUSRKT_EUlvE_EEvS8_>:
    9b00:	e92d4800 	push	{fp, lr}
    9b04:	e28db004 	add	fp, sp, #4
    9b08:	e24dd008 	sub	sp, sp, #8
    9b0c:	e50b0008 	str	r0, [fp, #-8]
    9b10:	e51b0008 	ldr	r0, [fp, #-8]
    9b14:	ebfffd53 	bl	9068 <_ZZNK4GPIO12pull_up_downIA28_jEEv10PUD_STATUSRKT_ENKUlvE_clEv>
    9b18:	e51b0008 	ldr	r0, [fp, #-8]
    9b1c:	eb00000d 	bl	9b58 <_ZN6UnrollILj123EE4callIZNK4GPIO12pull_up_downIA28_jEEv10PUD_STATUSRKT_EUlvE_EEvS8_>
    9b20:	e320f000 	nop	{0}
    9b24:	e24bd004 	sub	sp, fp, #4
    9b28:	e8bd8800 	pop	{fp, pc}

00009b2c <_ZN6UnrollILj124EE4callIZNK4GPIO12pull_up_downIA28_jEEv10PUD_STATUSRKT_EUlvE0_EEvS8_>:
    9b2c:	e92d4800 	push	{fp, lr}
    9b30:	e28db004 	add	fp, sp, #4
    9b34:	e24dd008 	sub	sp, sp, #8
    9b38:	e50b0008 	str	r0, [fp, #-8]
    9b3c:	e51b0008 	ldr	r0, [fp, #-8]
    9b40:	ebfffd56 	bl	90a0 <_ZZNK4GPIO12pull_up_downIA28_jEEv10PUD_STATUSRKT_ENKUlvE0_clEv>
    9b44:	e51b0008 	ldr	r0, [fp, #-8]
    9b48:	eb00000d 	bl	9b84 <_ZN6UnrollILj123EE4callIZNK4GPIO12pull_up_downIA28_jEEv10PUD_STATUSRKT_EUlvE0_EEvS8_>
    9b4c:	e320f000 	nop	{0}
    9b50:	e24bd004 	sub	sp, fp, #4
    9b54:	e8bd8800 	pop	{fp, pc}

00009b58 <_ZN6UnrollILj123EE4callIZNK4GPIO12pull_up_downIA28_jEEv10PUD_STATUSRKT_EUlvE_EEvS8_>:
    9b58:	e92d4800 	push	{fp, lr}
    9b5c:	e28db004 	add	fp, sp, #4
    9b60:	e24dd008 	sub	sp, sp, #8
    9b64:	e50b0008 	str	r0, [fp, #-8]
    9b68:	e51b0008 	ldr	r0, [fp, #-8]
    9b6c:	ebfffd3d 	bl	9068 <_ZZNK4GPIO12pull_up_downIA28_jEEv10PUD_STATUSRKT_ENKUlvE_clEv>
    9b70:	e51b0008 	ldr	r0, [fp, #-8]
    9b74:	eb00000d 	bl	9bb0 <_ZN6UnrollILj122EE4callIZNK4GPIO12pull_up_downIA28_jEEv10PUD_STATUSRKT_EUlvE_EEvS8_>
    9b78:	e320f000 	nop	{0}
    9b7c:	e24bd004 	sub	sp, fp, #4
    9b80:	e8bd8800 	pop	{fp, pc}

00009b84 <_ZN6UnrollILj123EE4callIZNK4GPIO12pull_up_downIA28_jEEv10PUD_STATUSRKT_EUlvE0_EEvS8_>:
    9b84:	e92d4800 	push	{fp, lr}
    9b88:	e28db004 	add	fp, sp, #4
    9b8c:	e24dd008 	sub	sp, sp, #8
    9b90:	e50b0008 	str	r0, [fp, #-8]
    9b94:	e51b0008 	ldr	r0, [fp, #-8]
    9b98:	ebfffd40 	bl	90a0 <_ZZNK4GPIO12pull_up_downIA28_jEEv10PUD_STATUSRKT_ENKUlvE0_clEv>
    9b9c:	e51b0008 	ldr	r0, [fp, #-8]
    9ba0:	eb00000d 	bl	9bdc <_ZN6UnrollILj122EE4callIZNK4GPIO12pull_up_downIA28_jEEv10PUD_STATUSRKT_EUlvE0_EEvS8_>
    9ba4:	e320f000 	nop	{0}
    9ba8:	e24bd004 	sub	sp, fp, #4
    9bac:	e8bd8800 	pop	{fp, pc}

00009bb0 <_ZN6UnrollILj122EE4callIZNK4GPIO12pull_up_downIA28_jEEv10PUD_STATUSRKT_EUlvE_EEvS8_>:
    9bb0:	e92d4800 	push	{fp, lr}
    9bb4:	e28db004 	add	fp, sp, #4
    9bb8:	e24dd008 	sub	sp, sp, #8
    9bbc:	e50b0008 	str	r0, [fp, #-8]
    9bc0:	e51b0008 	ldr	r0, [fp, #-8]
    9bc4:	ebfffd27 	bl	9068 <_ZZNK4GPIO12pull_up_downIA28_jEEv10PUD_STATUSRKT_ENKUlvE_clEv>
    9bc8:	e51b0008 	ldr	r0, [fp, #-8]
    9bcc:	eb00000d 	bl	9c08 <_ZN6UnrollILj121EE4callIZNK4GPIO12pull_up_downIA28_jEEv10PUD_STATUSRKT_EUlvE_EEvS8_>
    9bd0:	e320f000 	nop	{0}
    9bd4:	e24bd004 	sub	sp, fp, #4
    9bd8:	e8bd8800 	pop	{fp, pc}

00009bdc <_ZN6UnrollILj122EE4callIZNK4GPIO12pull_up_downIA28_jEEv10PUD_STATUSRKT_EUlvE0_EEvS8_>:
    9bdc:	e92d4800 	push	{fp, lr}
    9be0:	e28db004 	add	fp, sp, #4
    9be4:	e24dd008 	sub	sp, sp, #8
    9be8:	e50b0008 	str	r0, [fp, #-8]
    9bec:	e51b0008 	ldr	r0, [fp, #-8]
    9bf0:	ebfffd2a 	bl	90a0 <_ZZNK4GPIO12pull_up_downIA28_jEEv10PUD_STATUSRKT_ENKUlvE0_clEv>
    9bf4:	e51b0008 	ldr	r0, [fp, #-8]
    9bf8:	eb00000d 	bl	9c34 <_ZN6UnrollILj121EE4callIZNK4GPIO12pull_up_downIA28_jEEv10PUD_STATUSRKT_EUlvE0_EEvS8_>
    9bfc:	e320f000 	nop	{0}
    9c00:	e24bd004 	sub	sp, fp, #4
    9c04:	e8bd8800 	pop	{fp, pc}

00009c08 <_ZN6UnrollILj121EE4callIZNK4GPIO12pull_up_downIA28_jEEv10PUD_STATUSRKT_EUlvE_EEvS8_>:
    9c08:	e92d4800 	push	{fp, lr}
    9c0c:	e28db004 	add	fp, sp, #4
    9c10:	e24dd008 	sub	sp, sp, #8
    9c14:	e50b0008 	str	r0, [fp, #-8]
    9c18:	e51b0008 	ldr	r0, [fp, #-8]
    9c1c:	ebfffd11 	bl	9068 <_ZZNK4GPIO12pull_up_downIA28_jEEv10PUD_STATUSRKT_ENKUlvE_clEv>
    9c20:	e51b0008 	ldr	r0, [fp, #-8]
    9c24:	eb00000d 	bl	9c60 <_ZN6UnrollILj120EE4callIZNK4GPIO12pull_up_downIA28_jEEv10PUD_STATUSRKT_EUlvE_EEvS8_>
    9c28:	e320f000 	nop	{0}
    9c2c:	e24bd004 	sub	sp, fp, #4
    9c30:	e8bd8800 	pop	{fp, pc}

00009c34 <_ZN6UnrollILj121EE4callIZNK4GPIO12pull_up_downIA28_jEEv10PUD_STATUSRKT_EUlvE0_EEvS8_>:
    9c34:	e92d4800 	push	{fp, lr}
    9c38:	e28db004 	add	fp, sp, #4
    9c3c:	e24dd008 	sub	sp, sp, #8
    9c40:	e50b0008 	str	r0, [fp, #-8]
    9c44:	e51b0008 	ldr	r0, [fp, #-8]
    9c48:	ebfffd14 	bl	90a0 <_ZZNK4GPIO12pull_up_downIA28_jEEv10PUD_STATUSRKT_ENKUlvE0_clEv>
    9c4c:	e51b0008 	ldr	r0, [fp, #-8]
    9c50:	eb00000d 	bl	9c8c <_ZN6UnrollILj120EE4callIZNK4GPIO12pull_up_downIA28_jEEv10PUD_STATUSRKT_EUlvE0_EEvS8_>
    9c54:	e320f000 	nop	{0}
    9c58:	e24bd004 	sub	sp, fp, #4
    9c5c:	e8bd8800 	pop	{fp, pc}

00009c60 <_ZN6UnrollILj120EE4callIZNK4GPIO12pull_up_downIA28_jEEv10PUD_STATUSRKT_EUlvE_EEvS8_>:
    9c60:	e92d4800 	push	{fp, lr}
    9c64:	e28db004 	add	fp, sp, #4
    9c68:	e24dd008 	sub	sp, sp, #8
    9c6c:	e50b0008 	str	r0, [fp, #-8]
    9c70:	e51b0008 	ldr	r0, [fp, #-8]
    9c74:	ebfffcfb 	bl	9068 <_ZZNK4GPIO12pull_up_downIA28_jEEv10PUD_STATUSRKT_ENKUlvE_clEv>
    9c78:	e51b0008 	ldr	r0, [fp, #-8]
    9c7c:	eb00000d 	bl	9cb8 <_ZN6UnrollILj119EE4callIZNK4GPIO12pull_up_downIA28_jEEv10PUD_STATUSRKT_EUlvE_EEvS8_>
    9c80:	e320f000 	nop	{0}
    9c84:	e24bd004 	sub	sp, fp, #4
    9c88:	e8bd8800 	pop	{fp, pc}

00009c8c <_ZN6UnrollILj120EE4callIZNK4GPIO12pull_up_downIA28_jEEv10PUD_STATUSRKT_EUlvE0_EEvS8_>:
    9c8c:	e92d4800 	push	{fp, lr}
    9c90:	e28db004 	add	fp, sp, #4
    9c94:	e24dd008 	sub	sp, sp, #8
    9c98:	e50b0008 	str	r0, [fp, #-8]
    9c9c:	e51b0008 	ldr	r0, [fp, #-8]
    9ca0:	ebfffcfe 	bl	90a0 <_ZZNK4GPIO12pull_up_downIA28_jEEv10PUD_STATUSRKT_ENKUlvE0_clEv>
    9ca4:	e51b0008 	ldr	r0, [fp, #-8]
    9ca8:	eb00000d 	bl	9ce4 <_ZN6UnrollILj119EE4callIZNK4GPIO12pull_up_downIA28_jEEv10PUD_STATUSRKT_EUlvE0_EEvS8_>
    9cac:	e320f000 	nop	{0}
    9cb0:	e24bd004 	sub	sp, fp, #4
    9cb4:	e8bd8800 	pop	{fp, pc}

00009cb8 <_ZN6UnrollILj119EE4callIZNK4GPIO12pull_up_downIA28_jEEv10PUD_STATUSRKT_EUlvE_EEvS8_>:
    9cb8:	e92d4800 	push	{fp, lr}
    9cbc:	e28db004 	add	fp, sp, #4
    9cc0:	e24dd008 	sub	sp, sp, #8
    9cc4:	e50b0008 	str	r0, [fp, #-8]
    9cc8:	e51b0008 	ldr	r0, [fp, #-8]
    9ccc:	ebfffce5 	bl	9068 <_ZZNK4GPIO12pull_up_downIA28_jEEv10PUD_STATUSRKT_ENKUlvE_clEv>
    9cd0:	e51b0008 	ldr	r0, [fp, #-8]
    9cd4:	eb00000d 	bl	9d10 <_ZN6UnrollILj118EE4callIZNK4GPIO12pull_up_downIA28_jEEv10PUD_STATUSRKT_EUlvE_EEvS8_>
    9cd8:	e320f000 	nop	{0}
    9cdc:	e24bd004 	sub	sp, fp, #4
    9ce0:	e8bd8800 	pop	{fp, pc}

00009ce4 <_ZN6UnrollILj119EE4callIZNK4GPIO12pull_up_downIA28_jEEv10PUD_STATUSRKT_EUlvE0_EEvS8_>:
    9ce4:	e92d4800 	push	{fp, lr}
    9ce8:	e28db004 	add	fp, sp, #4
    9cec:	e24dd008 	sub	sp, sp, #8
    9cf0:	e50b0008 	str	r0, [fp, #-8]
    9cf4:	e51b0008 	ldr	r0, [fp, #-8]
    9cf8:	ebfffce8 	bl	90a0 <_ZZNK4GPIO12pull_up_downIA28_jEEv10PUD_STATUSRKT_ENKUlvE0_clEv>
    9cfc:	e51b0008 	ldr	r0, [fp, #-8]
    9d00:	eb00000d 	bl	9d3c <_ZN6UnrollILj118EE4callIZNK4GPIO12pull_up_downIA28_jEEv10PUD_STATUSRKT_EUlvE0_EEvS8_>
    9d04:	e320f000 	nop	{0}
    9d08:	e24bd004 	sub	sp, fp, #4
    9d0c:	e8bd8800 	pop	{fp, pc}

00009d10 <_ZN6UnrollILj118EE4callIZNK4GPIO12pull_up_downIA28_jEEv10PUD_STATUSRKT_EUlvE_EEvS8_>:
    9d10:	e92d4800 	push	{fp, lr}
    9d14:	e28db004 	add	fp, sp, #4
    9d18:	e24dd008 	sub	sp, sp, #8
    9d1c:	e50b0008 	str	r0, [fp, #-8]
    9d20:	e51b0008 	ldr	r0, [fp, #-8]
    9d24:	ebfffccf 	bl	9068 <_ZZNK4GPIO12pull_up_downIA28_jEEv10PUD_STATUSRKT_ENKUlvE_clEv>
    9d28:	e51b0008 	ldr	r0, [fp, #-8]
    9d2c:	eb00000d 	bl	9d68 <_ZN6UnrollILj117EE4callIZNK4GPIO12pull_up_downIA28_jEEv10PUD_STATUSRKT_EUlvE_EEvS8_>
    9d30:	e320f000 	nop	{0}
    9d34:	e24bd004 	sub	sp, fp, #4
    9d38:	e8bd8800 	pop	{fp, pc}

00009d3c <_ZN6UnrollILj118EE4callIZNK4GPIO12pull_up_downIA28_jEEv10PUD_STATUSRKT_EUlvE0_EEvS8_>:
    9d3c:	e92d4800 	push	{fp, lr}
    9d40:	e28db004 	add	fp, sp, #4
    9d44:	e24dd008 	sub	sp, sp, #8
    9d48:	e50b0008 	str	r0, [fp, #-8]
    9d4c:	e51b0008 	ldr	r0, [fp, #-8]
    9d50:	ebfffcd2 	bl	90a0 <_ZZNK4GPIO12pull_up_downIA28_jEEv10PUD_STATUSRKT_ENKUlvE0_clEv>
    9d54:	e51b0008 	ldr	r0, [fp, #-8]
    9d58:	eb00000d 	bl	9d94 <_ZN6UnrollILj117EE4callIZNK4GPIO12pull_up_downIA28_jEEv10PUD_STATUSRKT_EUlvE0_EEvS8_>
    9d5c:	e320f000 	nop	{0}
    9d60:	e24bd004 	sub	sp, fp, #4
    9d64:	e8bd8800 	pop	{fp, pc}

00009d68 <_ZN6UnrollILj117EE4callIZNK4GPIO12pull_up_downIA28_jEEv10PUD_STATUSRKT_EUlvE_EEvS8_>:
    9d68:	e92d4800 	push	{fp, lr}
    9d6c:	e28db004 	add	fp, sp, #4
    9d70:	e24dd008 	sub	sp, sp, #8
    9d74:	e50b0008 	str	r0, [fp, #-8]
    9d78:	e51b0008 	ldr	r0, [fp, #-8]
    9d7c:	ebfffcb9 	bl	9068 <_ZZNK4GPIO12pull_up_downIA28_jEEv10PUD_STATUSRKT_ENKUlvE_clEv>
    9d80:	e51b0008 	ldr	r0, [fp, #-8]
    9d84:	eb00000d 	bl	9dc0 <_ZN6UnrollILj116EE4callIZNK4GPIO12pull_up_downIA28_jEEv10PUD_STATUSRKT_EUlvE_EEvS8_>
    9d88:	e320f000 	nop	{0}
    9d8c:	e24bd004 	sub	sp, fp, #4
    9d90:	e8bd8800 	pop	{fp, pc}

00009d94 <_ZN6UnrollILj117EE4callIZNK4GPIO12pull_up_downIA28_jEEv10PUD_STATUSRKT_EUlvE0_EEvS8_>:
    9d94:	e92d4800 	push	{fp, lr}
    9d98:	e28db004 	add	fp, sp, #4
    9d9c:	e24dd008 	sub	sp, sp, #8
    9da0:	e50b0008 	str	r0, [fp, #-8]
    9da4:	e51b0008 	ldr	r0, [fp, #-8]
    9da8:	ebfffcbc 	bl	90a0 <_ZZNK4GPIO12pull_up_downIA28_jEEv10PUD_STATUSRKT_ENKUlvE0_clEv>
    9dac:	e51b0008 	ldr	r0, [fp, #-8]
    9db0:	eb00000d 	bl	9dec <_ZN6UnrollILj116EE4callIZNK4GPIO12pull_up_downIA28_jEEv10PUD_STATUSRKT_EUlvE0_EEvS8_>
    9db4:	e320f000 	nop	{0}
    9db8:	e24bd004 	sub	sp, fp, #4
    9dbc:	e8bd8800 	pop	{fp, pc}

00009dc0 <_ZN6UnrollILj116EE4callIZNK4GPIO12pull_up_downIA28_jEEv10PUD_STATUSRKT_EUlvE_EEvS8_>:
    9dc0:	e92d4800 	push	{fp, lr}
    9dc4:	e28db004 	add	fp, sp, #4
    9dc8:	e24dd008 	sub	sp, sp, #8
    9dcc:	e50b0008 	str	r0, [fp, #-8]
    9dd0:	e51b0008 	ldr	r0, [fp, #-8]
    9dd4:	ebfffca3 	bl	9068 <_ZZNK4GPIO12pull_up_downIA28_jEEv10PUD_STATUSRKT_ENKUlvE_clEv>
    9dd8:	e51b0008 	ldr	r0, [fp, #-8]
    9ddc:	eb00000d 	bl	9e18 <_ZN6UnrollILj115EE4callIZNK4GPIO12pull_up_downIA28_jEEv10PUD_STATUSRKT_EUlvE_EEvS8_>
    9de0:	e320f000 	nop	{0}
    9de4:	e24bd004 	sub	sp, fp, #4
    9de8:	e8bd8800 	pop	{fp, pc}

00009dec <_ZN6UnrollILj116EE4callIZNK4GPIO12pull_up_downIA28_jEEv10PUD_STATUSRKT_EUlvE0_EEvS8_>:
    9dec:	e92d4800 	push	{fp, lr}
    9df0:	e28db004 	add	fp, sp, #4
    9df4:	e24dd008 	sub	sp, sp, #8
    9df8:	e50b0008 	str	r0, [fp, #-8]
    9dfc:	e51b0008 	ldr	r0, [fp, #-8]
    9e00:	ebfffca6 	bl	90a0 <_ZZNK4GPIO12pull_up_downIA28_jEEv10PUD_STATUSRKT_ENKUlvE0_clEv>
    9e04:	e51b0008 	ldr	r0, [fp, #-8]
    9e08:	eb00000d 	bl	9e44 <_ZN6UnrollILj115EE4callIZNK4GPIO12pull_up_downIA28_jEEv10PUD_STATUSRKT_EUlvE0_EEvS8_>
    9e0c:	e320f000 	nop	{0}
    9e10:	e24bd004 	sub	sp, fp, #4
    9e14:	e8bd8800 	pop	{fp, pc}

00009e18 <_ZN6UnrollILj115EE4callIZNK4GPIO12pull_up_downIA28_jEEv10PUD_STATUSRKT_EUlvE_EEvS8_>:
    9e18:	e92d4800 	push	{fp, lr}
    9e1c:	e28db004 	add	fp, sp, #4
    9e20:	e24dd008 	sub	sp, sp, #8
    9e24:	e50b0008 	str	r0, [fp, #-8]
    9e28:	e51b0008 	ldr	r0, [fp, #-8]
    9e2c:	ebfffc8d 	bl	9068 <_ZZNK4GPIO12pull_up_downIA28_jEEv10PUD_STATUSRKT_ENKUlvE_clEv>
    9e30:	e51b0008 	ldr	r0, [fp, #-8]
    9e34:	eb00000d 	bl	9e70 <_ZN6UnrollILj114EE4callIZNK4GPIO12pull_up_downIA28_jEEv10PUD_STATUSRKT_EUlvE_EEvS8_>
    9e38:	e320f000 	nop	{0}
    9e3c:	e24bd004 	sub	sp, fp, #4
    9e40:	e8bd8800 	pop	{fp, pc}

00009e44 <_ZN6UnrollILj115EE4callIZNK4GPIO12pull_up_downIA28_jEEv10PUD_STATUSRKT_EUlvE0_EEvS8_>:
    9e44:	e92d4800 	push	{fp, lr}
    9e48:	e28db004 	add	fp, sp, #4
    9e4c:	e24dd008 	sub	sp, sp, #8
    9e50:	e50b0008 	str	r0, [fp, #-8]
    9e54:	e51b0008 	ldr	r0, [fp, #-8]
    9e58:	ebfffc90 	bl	90a0 <_ZZNK4GPIO12pull_up_downIA28_jEEv10PUD_STATUSRKT_ENKUlvE0_clEv>
    9e5c:	e51b0008 	ldr	r0, [fp, #-8]
    9e60:	eb00000d 	bl	9e9c <_ZN6UnrollILj114EE4callIZNK4GPIO12pull_up_downIA28_jEEv10PUD_STATUSRKT_EUlvE0_EEvS8_>
    9e64:	e320f000 	nop	{0}
    9e68:	e24bd004 	sub	sp, fp, #4
    9e6c:	e8bd8800 	pop	{fp, pc}

00009e70 <_ZN6UnrollILj114EE4callIZNK4GPIO12pull_up_downIA28_jEEv10PUD_STATUSRKT_EUlvE_EEvS8_>:
    9e70:	e92d4800 	push	{fp, lr}
    9e74:	e28db004 	add	fp, sp, #4
    9e78:	e24dd008 	sub	sp, sp, #8
    9e7c:	e50b0008 	str	r0, [fp, #-8]
    9e80:	e51b0008 	ldr	r0, [fp, #-8]
    9e84:	ebfffc77 	bl	9068 <_ZZNK4GPIO12pull_up_downIA28_jEEv10PUD_STATUSRKT_ENKUlvE_clEv>
    9e88:	e51b0008 	ldr	r0, [fp, #-8]
    9e8c:	eb00000d 	bl	9ec8 <_ZN6UnrollILj113EE4callIZNK4GPIO12pull_up_downIA28_jEEv10PUD_STATUSRKT_EUlvE_EEvS8_>
    9e90:	e320f000 	nop	{0}
    9e94:	e24bd004 	sub	sp, fp, #4
    9e98:	e8bd8800 	pop	{fp, pc}

00009e9c <_ZN6UnrollILj114EE4callIZNK4GPIO12pull_up_downIA28_jEEv10PUD_STATUSRKT_EUlvE0_EEvS8_>:
    9e9c:	e92d4800 	push	{fp, lr}
    9ea0:	e28db004 	add	fp, sp, #4
    9ea4:	e24dd008 	sub	sp, sp, #8
    9ea8:	e50b0008 	str	r0, [fp, #-8]
    9eac:	e51b0008 	ldr	r0, [fp, #-8]
    9eb0:	ebfffc7a 	bl	90a0 <_ZZNK4GPIO12pull_up_downIA28_jEEv10PUD_STATUSRKT_ENKUlvE0_clEv>
    9eb4:	e51b0008 	ldr	r0, [fp, #-8]
    9eb8:	eb00000d 	bl	9ef4 <_ZN6UnrollILj113EE4callIZNK4GPIO12pull_up_downIA28_jEEv10PUD_STATUSRKT_EUlvE0_EEvS8_>
    9ebc:	e320f000 	nop	{0}
    9ec0:	e24bd004 	sub	sp, fp, #4
    9ec4:	e8bd8800 	pop	{fp, pc}

00009ec8 <_ZN6UnrollILj113EE4callIZNK4GPIO12pull_up_downIA28_jEEv10PUD_STATUSRKT_EUlvE_EEvS8_>:
    9ec8:	e92d4800 	push	{fp, lr}
    9ecc:	e28db004 	add	fp, sp, #4
    9ed0:	e24dd008 	sub	sp, sp, #8
    9ed4:	e50b0008 	str	r0, [fp, #-8]
    9ed8:	e51b0008 	ldr	r0, [fp, #-8]
    9edc:	ebfffc61 	bl	9068 <_ZZNK4GPIO12pull_up_downIA28_jEEv10PUD_STATUSRKT_ENKUlvE_clEv>
    9ee0:	e51b0008 	ldr	r0, [fp, #-8]
    9ee4:	eb00000d 	bl	9f20 <_ZN6UnrollILj112EE4callIZNK4GPIO12pull_up_downIA28_jEEv10PUD_STATUSRKT_EUlvE_EEvS8_>
    9ee8:	e320f000 	nop	{0}
    9eec:	e24bd004 	sub	sp, fp, #4
    9ef0:	e8bd8800 	pop	{fp, pc}

00009ef4 <_ZN6UnrollILj113EE4callIZNK4GPIO12pull_up_downIA28_jEEv10PUD_STATUSRKT_EUlvE0_EEvS8_>:
    9ef4:	e92d4800 	push	{fp, lr}
    9ef8:	e28db004 	add	fp, sp, #4
    9efc:	e24dd008 	sub	sp, sp, #8
    9f00:	e50b0008 	str	r0, [fp, #-8]
    9f04:	e51b0008 	ldr	r0, [fp, #-8]
    9f08:	ebfffc64 	bl	90a0 <_ZZNK4GPIO12pull_up_downIA28_jEEv10PUD_STATUSRKT_ENKUlvE0_clEv>
    9f0c:	e51b0008 	ldr	r0, [fp, #-8]
    9f10:	eb00000d 	bl	9f4c <_ZN6UnrollILj112EE4callIZNK4GPIO12pull_up_downIA28_jEEv10PUD_STATUSRKT_EUlvE0_EEvS8_>
    9f14:	e320f000 	nop	{0}
    9f18:	e24bd004 	sub	sp, fp, #4
    9f1c:	e8bd8800 	pop	{fp, pc}

00009f20 <_ZN6UnrollILj112EE4callIZNK4GPIO12pull_up_downIA28_jEEv10PUD_STATUSRKT_EUlvE_EEvS8_>:
    9f20:	e92d4800 	push	{fp, lr}
    9f24:	e28db004 	add	fp, sp, #4
    9f28:	e24dd008 	sub	sp, sp, #8
    9f2c:	e50b0008 	str	r0, [fp, #-8]
    9f30:	e51b0008 	ldr	r0, [fp, #-8]
    9f34:	ebfffc4b 	bl	9068 <_ZZNK4GPIO12pull_up_downIA28_jEEv10PUD_STATUSRKT_ENKUlvE_clEv>
    9f38:	e51b0008 	ldr	r0, [fp, #-8]
    9f3c:	eb00000d 	bl	9f78 <_ZN6UnrollILj111EE4callIZNK4GPIO12pull_up_downIA28_jEEv10PUD_STATUSRKT_EUlvE_EEvS8_>
    9f40:	e320f000 	nop	{0}
    9f44:	e24bd004 	sub	sp, fp, #4
    9f48:	e8bd8800 	pop	{fp, pc}

00009f4c <_ZN6UnrollILj112EE4callIZNK4GPIO12pull_up_downIA28_jEEv10PUD_STATUSRKT_EUlvE0_EEvS8_>:
    9f4c:	e92d4800 	push	{fp, lr}
    9f50:	e28db004 	add	fp, sp, #4
    9f54:	e24dd008 	sub	sp, sp, #8
    9f58:	e50b0008 	str	r0, [fp, #-8]
    9f5c:	e51b0008 	ldr	r0, [fp, #-8]
    9f60:	ebfffc4e 	bl	90a0 <_ZZNK4GPIO12pull_up_downIA28_jEEv10PUD_STATUSRKT_ENKUlvE0_clEv>
    9f64:	e51b0008 	ldr	r0, [fp, #-8]
    9f68:	eb00000d 	bl	9fa4 <_ZN6UnrollILj111EE4callIZNK4GPIO12pull_up_downIA28_jEEv10PUD_STATUSRKT_EUlvE0_EEvS8_>
    9f6c:	e320f000 	nop	{0}
    9f70:	e24bd004 	sub	sp, fp, #4
    9f74:	e8bd8800 	pop	{fp, pc}

00009f78 <_ZN6UnrollILj111EE4callIZNK4GPIO12pull_up_downIA28_jEEv10PUD_STATUSRKT_EUlvE_EEvS8_>:
    9f78:	e92d4800 	push	{fp, lr}
    9f7c:	e28db004 	add	fp, sp, #4
    9f80:	e24dd008 	sub	sp, sp, #8
    9f84:	e50b0008 	str	r0, [fp, #-8]
    9f88:	e51b0008 	ldr	r0, [fp, #-8]
    9f8c:	ebfffc35 	bl	9068 <_ZZNK4GPIO12pull_up_downIA28_jEEv10PUD_STATUSRKT_ENKUlvE_clEv>
    9f90:	e51b0008 	ldr	r0, [fp, #-8]
    9f94:	eb00000d 	bl	9fd0 <_ZN6UnrollILj110EE4callIZNK4GPIO12pull_up_downIA28_jEEv10PUD_STATUSRKT_EUlvE_EEvS8_>
    9f98:	e320f000 	nop	{0}
    9f9c:	e24bd004 	sub	sp, fp, #4
    9fa0:	e8bd8800 	pop	{fp, pc}

00009fa4 <_ZN6UnrollILj111EE4callIZNK4GPIO12pull_up_downIA28_jEEv10PUD_STATUSRKT_EUlvE0_EEvS8_>:
    9fa4:	e92d4800 	push	{fp, lr}
    9fa8:	e28db004 	add	fp, sp, #4
    9fac:	e24dd008 	sub	sp, sp, #8
    9fb0:	e50b0008 	str	r0, [fp, #-8]
    9fb4:	e51b0008 	ldr	r0, [fp, #-8]
    9fb8:	ebfffc38 	bl	90a0 <_ZZNK4GPIO12pull_up_downIA28_jEEv10PUD_STATUSRKT_ENKUlvE0_clEv>
    9fbc:	e51b0008 	ldr	r0, [fp, #-8]
    9fc0:	eb00000d 	bl	9ffc <_ZN6UnrollILj110EE4callIZNK4GPIO12pull_up_downIA28_jEEv10PUD_STATUSRKT_EUlvE0_EEvS8_>
    9fc4:	e320f000 	nop	{0}
    9fc8:	e24bd004 	sub	sp, fp, #4
    9fcc:	e8bd8800 	pop	{fp, pc}

00009fd0 <_ZN6UnrollILj110EE4callIZNK4GPIO12pull_up_downIA28_jEEv10PUD_STATUSRKT_EUlvE_EEvS8_>:
    9fd0:	e92d4800 	push	{fp, lr}
    9fd4:	e28db004 	add	fp, sp, #4
    9fd8:	e24dd008 	sub	sp, sp, #8
    9fdc:	e50b0008 	str	r0, [fp, #-8]
    9fe0:	e51b0008 	ldr	r0, [fp, #-8]
    9fe4:	ebfffc1f 	bl	9068 <_ZZNK4GPIO12pull_up_downIA28_jEEv10PUD_STATUSRKT_ENKUlvE_clEv>
    9fe8:	e51b0008 	ldr	r0, [fp, #-8]
    9fec:	eb00000d 	bl	a028 <_ZN6UnrollILj109EE4callIZNK4GPIO12pull_up_downIA28_jEEv10PUD_STATUSRKT_EUlvE_EEvS8_>
    9ff0:	e320f000 	nop	{0}
    9ff4:	e24bd004 	sub	sp, fp, #4
    9ff8:	e8bd8800 	pop	{fp, pc}

00009ffc <_ZN6UnrollILj110EE4callIZNK4GPIO12pull_up_downIA28_jEEv10PUD_STATUSRKT_EUlvE0_EEvS8_>:
    9ffc:	e92d4800 	push	{fp, lr}
    a000:	e28db004 	add	fp, sp, #4
    a004:	e24dd008 	sub	sp, sp, #8
    a008:	e50b0008 	str	r0, [fp, #-8]
    a00c:	e51b0008 	ldr	r0, [fp, #-8]
    a010:	ebfffc22 	bl	90a0 <_ZZNK4GPIO12pull_up_downIA28_jEEv10PUD_STATUSRKT_ENKUlvE0_clEv>
    a014:	e51b0008 	ldr	r0, [fp, #-8]
    a018:	eb00000d 	bl	a054 <_ZN6UnrollILj109EE4callIZNK4GPIO12pull_up_downIA28_jEEv10PUD_STATUSRKT_EUlvE0_EEvS8_>
    a01c:	e320f000 	nop	{0}
    a020:	e24bd004 	sub	sp, fp, #4
    a024:	e8bd8800 	pop	{fp, pc}

0000a028 <_ZN6UnrollILj109EE4callIZNK4GPIO12pull_up_downIA28_jEEv10PUD_STATUSRKT_EUlvE_EEvS8_>:
    a028:	e92d4800 	push	{fp, lr}
    a02c:	e28db004 	add	fp, sp, #4
    a030:	e24dd008 	sub	sp, sp, #8
    a034:	e50b0008 	str	r0, [fp, #-8]
    a038:	e51b0008 	ldr	r0, [fp, #-8]
    a03c:	ebfffc09 	bl	9068 <_ZZNK4GPIO12pull_up_downIA28_jEEv10PUD_STATUSRKT_ENKUlvE_clEv>
    a040:	e51b0008 	ldr	r0, [fp, #-8]
    a044:	eb00000d 	bl	a080 <_ZN6UnrollILj108EE4callIZNK4GPIO12pull_up_downIA28_jEEv10PUD_STATUSRKT_EUlvE_EEvS8_>
    a048:	e320f000 	nop	{0}
    a04c:	e24bd004 	sub	sp, fp, #4
    a050:	e8bd8800 	pop	{fp, pc}

0000a054 <_ZN6UnrollILj109EE4callIZNK4GPIO12pull_up_downIA28_jEEv10PUD_STATUSRKT_EUlvE0_EEvS8_>:
    a054:	e92d4800 	push	{fp, lr}
    a058:	e28db004 	add	fp, sp, #4
    a05c:	e24dd008 	sub	sp, sp, #8
    a060:	e50b0008 	str	r0, [fp, #-8]
    a064:	e51b0008 	ldr	r0, [fp, #-8]
    a068:	ebfffc0c 	bl	90a0 <_ZZNK4GPIO12pull_up_downIA28_jEEv10PUD_STATUSRKT_ENKUlvE0_clEv>
    a06c:	e51b0008 	ldr	r0, [fp, #-8]
    a070:	eb00000d 	bl	a0ac <_ZN6UnrollILj108EE4callIZNK4GPIO12pull_up_downIA28_jEEv10PUD_STATUSRKT_EUlvE0_EEvS8_>
    a074:	e320f000 	nop	{0}
    a078:	e24bd004 	sub	sp, fp, #4
    a07c:	e8bd8800 	pop	{fp, pc}

0000a080 <_ZN6UnrollILj108EE4callIZNK4GPIO12pull_up_downIA28_jEEv10PUD_STATUSRKT_EUlvE_EEvS8_>:
    a080:	e92d4800 	push	{fp, lr}
    a084:	e28db004 	add	fp, sp, #4
    a088:	e24dd008 	sub	sp, sp, #8
    a08c:	e50b0008 	str	r0, [fp, #-8]
    a090:	e51b0008 	ldr	r0, [fp, #-8]
    a094:	ebfffbf3 	bl	9068 <_ZZNK4GPIO12pull_up_downIA28_jEEv10PUD_STATUSRKT_ENKUlvE_clEv>
    a098:	e51b0008 	ldr	r0, [fp, #-8]
    a09c:	eb00000d 	bl	a0d8 <_ZN6UnrollILj107EE4callIZNK4GPIO12pull_up_downIA28_jEEv10PUD_STATUSRKT_EUlvE_EEvS8_>
    a0a0:	e320f000 	nop	{0}
    a0a4:	e24bd004 	sub	sp, fp, #4
    a0a8:	e8bd8800 	pop	{fp, pc}

0000a0ac <_ZN6UnrollILj108EE4callIZNK4GPIO12pull_up_downIA28_jEEv10PUD_STATUSRKT_EUlvE0_EEvS8_>:
    a0ac:	e92d4800 	push	{fp, lr}
    a0b0:	e28db004 	add	fp, sp, #4
    a0b4:	e24dd008 	sub	sp, sp, #8
    a0b8:	e50b0008 	str	r0, [fp, #-8]
    a0bc:	e51b0008 	ldr	r0, [fp, #-8]
    a0c0:	ebfffbf6 	bl	90a0 <_ZZNK4GPIO12pull_up_downIA28_jEEv10PUD_STATUSRKT_ENKUlvE0_clEv>
    a0c4:	e51b0008 	ldr	r0, [fp, #-8]
    a0c8:	eb00000d 	bl	a104 <_ZN6UnrollILj107EE4callIZNK4GPIO12pull_up_downIA28_jEEv10PUD_STATUSRKT_EUlvE0_EEvS8_>
    a0cc:	e320f000 	nop	{0}
    a0d0:	e24bd004 	sub	sp, fp, #4
    a0d4:	e8bd8800 	pop	{fp, pc}

0000a0d8 <_ZN6UnrollILj107EE4callIZNK4GPIO12pull_up_downIA28_jEEv10PUD_STATUSRKT_EUlvE_EEvS8_>:
    a0d8:	e92d4800 	push	{fp, lr}
    a0dc:	e28db004 	add	fp, sp, #4
    a0e0:	e24dd008 	sub	sp, sp, #8
    a0e4:	e50b0008 	str	r0, [fp, #-8]
    a0e8:	e51b0008 	ldr	r0, [fp, #-8]
    a0ec:	ebfffbdd 	bl	9068 <_ZZNK4GPIO12pull_up_downIA28_jEEv10PUD_STATUSRKT_ENKUlvE_clEv>
    a0f0:	e51b0008 	ldr	r0, [fp, #-8]
    a0f4:	eb00000d 	bl	a130 <_ZN6UnrollILj106EE4callIZNK4GPIO12pull_up_downIA28_jEEv10PUD_STATUSRKT_EUlvE_EEvS8_>
    a0f8:	e320f000 	nop	{0}
    a0fc:	e24bd004 	sub	sp, fp, #4
    a100:	e8bd8800 	pop	{fp, pc}

0000a104 <_ZN6UnrollILj107EE4callIZNK4GPIO12pull_up_downIA28_jEEv10PUD_STATUSRKT_EUlvE0_EEvS8_>:
    a104:	e92d4800 	push	{fp, lr}
    a108:	e28db004 	add	fp, sp, #4
    a10c:	e24dd008 	sub	sp, sp, #8
    a110:	e50b0008 	str	r0, [fp, #-8]
    a114:	e51b0008 	ldr	r0, [fp, #-8]
    a118:	ebfffbe0 	bl	90a0 <_ZZNK4GPIO12pull_up_downIA28_jEEv10PUD_STATUSRKT_ENKUlvE0_clEv>
    a11c:	e51b0008 	ldr	r0, [fp, #-8]
    a120:	eb00000d 	bl	a15c <_ZN6UnrollILj106EE4callIZNK4GPIO12pull_up_downIA28_jEEv10PUD_STATUSRKT_EUlvE0_EEvS8_>
    a124:	e320f000 	nop	{0}
    a128:	e24bd004 	sub	sp, fp, #4
    a12c:	e8bd8800 	pop	{fp, pc}

0000a130 <_ZN6UnrollILj106EE4callIZNK4GPIO12pull_up_downIA28_jEEv10PUD_STATUSRKT_EUlvE_EEvS8_>:
    a130:	e92d4800 	push	{fp, lr}
    a134:	e28db004 	add	fp, sp, #4
    a138:	e24dd008 	sub	sp, sp, #8
    a13c:	e50b0008 	str	r0, [fp, #-8]
    a140:	e51b0008 	ldr	r0, [fp, #-8]
    a144:	ebfffbc7 	bl	9068 <_ZZNK4GPIO12pull_up_downIA28_jEEv10PUD_STATUSRKT_ENKUlvE_clEv>
    a148:	e51b0008 	ldr	r0, [fp, #-8]
    a14c:	eb00000d 	bl	a188 <_ZN6UnrollILj105EE4callIZNK4GPIO12pull_up_downIA28_jEEv10PUD_STATUSRKT_EUlvE_EEvS8_>
    a150:	e320f000 	nop	{0}
    a154:	e24bd004 	sub	sp, fp, #4
    a158:	e8bd8800 	pop	{fp, pc}

0000a15c <_ZN6UnrollILj106EE4callIZNK4GPIO12pull_up_downIA28_jEEv10PUD_STATUSRKT_EUlvE0_EEvS8_>:
    a15c:	e92d4800 	push	{fp, lr}
    a160:	e28db004 	add	fp, sp, #4
    a164:	e24dd008 	sub	sp, sp, #8
    a168:	e50b0008 	str	r0, [fp, #-8]
    a16c:	e51b0008 	ldr	r0, [fp, #-8]
    a170:	ebfffbca 	bl	90a0 <_ZZNK4GPIO12pull_up_downIA28_jEEv10PUD_STATUSRKT_ENKUlvE0_clEv>
    a174:	e51b0008 	ldr	r0, [fp, #-8]
    a178:	eb00000d 	bl	a1b4 <_ZN6UnrollILj105EE4callIZNK4GPIO12pull_up_downIA28_jEEv10PUD_STATUSRKT_EUlvE0_EEvS8_>
    a17c:	e320f000 	nop	{0}
    a180:	e24bd004 	sub	sp, fp, #4
    a184:	e8bd8800 	pop	{fp, pc}

0000a188 <_ZN6UnrollILj105EE4callIZNK4GPIO12pull_up_downIA28_jEEv10PUD_STATUSRKT_EUlvE_EEvS8_>:
    a188:	e92d4800 	push	{fp, lr}
    a18c:	e28db004 	add	fp, sp, #4
    a190:	e24dd008 	sub	sp, sp, #8
    a194:	e50b0008 	str	r0, [fp, #-8]
    a198:	e51b0008 	ldr	r0, [fp, #-8]
    a19c:	ebfffbb1 	bl	9068 <_ZZNK4GPIO12pull_up_downIA28_jEEv10PUD_STATUSRKT_ENKUlvE_clEv>
    a1a0:	e51b0008 	ldr	r0, [fp, #-8]
    a1a4:	eb00000d 	bl	a1e0 <_ZN6UnrollILj104EE4callIZNK4GPIO12pull_up_downIA28_jEEv10PUD_STATUSRKT_EUlvE_EEvS8_>
    a1a8:	e320f000 	nop	{0}
    a1ac:	e24bd004 	sub	sp, fp, #4
    a1b0:	e8bd8800 	pop	{fp, pc}

0000a1b4 <_ZN6UnrollILj105EE4callIZNK4GPIO12pull_up_downIA28_jEEv10PUD_STATUSRKT_EUlvE0_EEvS8_>:
    a1b4:	e92d4800 	push	{fp, lr}
    a1b8:	e28db004 	add	fp, sp, #4
    a1bc:	e24dd008 	sub	sp, sp, #8
    a1c0:	e50b0008 	str	r0, [fp, #-8]
    a1c4:	e51b0008 	ldr	r0, [fp, #-8]
    a1c8:	ebfffbb4 	bl	90a0 <_ZZNK4GPIO12pull_up_downIA28_jEEv10PUD_STATUSRKT_ENKUlvE0_clEv>
    a1cc:	e51b0008 	ldr	r0, [fp, #-8]
    a1d0:	eb00000d 	bl	a20c <_ZN6UnrollILj104EE4callIZNK4GPIO12pull_up_downIA28_jEEv10PUD_STATUSRKT_EUlvE0_EEvS8_>
    a1d4:	e320f000 	nop	{0}
    a1d8:	e24bd004 	sub	sp, fp, #4
    a1dc:	e8bd8800 	pop	{fp, pc}

0000a1e0 <_ZN6UnrollILj104EE4callIZNK4GPIO12pull_up_downIA28_jEEv10PUD_STATUSRKT_EUlvE_EEvS8_>:
    a1e0:	e92d4800 	push	{fp, lr}
    a1e4:	e28db004 	add	fp, sp, #4
    a1e8:	e24dd008 	sub	sp, sp, #8
    a1ec:	e50b0008 	str	r0, [fp, #-8]
    a1f0:	e51b0008 	ldr	r0, [fp, #-8]
    a1f4:	ebfffb9b 	bl	9068 <_ZZNK4GPIO12pull_up_downIA28_jEEv10PUD_STATUSRKT_ENKUlvE_clEv>
    a1f8:	e51b0008 	ldr	r0, [fp, #-8]
    a1fc:	eb00000d 	bl	a238 <_ZN6UnrollILj103EE4callIZNK4GPIO12pull_up_downIA28_jEEv10PUD_STATUSRKT_EUlvE_EEvS8_>
    a200:	e320f000 	nop	{0}
    a204:	e24bd004 	sub	sp, fp, #4
    a208:	e8bd8800 	pop	{fp, pc}

0000a20c <_ZN6UnrollILj104EE4callIZNK4GPIO12pull_up_downIA28_jEEv10PUD_STATUSRKT_EUlvE0_EEvS8_>:
    a20c:	e92d4800 	push	{fp, lr}
    a210:	e28db004 	add	fp, sp, #4
    a214:	e24dd008 	sub	sp, sp, #8
    a218:	e50b0008 	str	r0, [fp, #-8]
    a21c:	e51b0008 	ldr	r0, [fp, #-8]
    a220:	ebfffb9e 	bl	90a0 <_ZZNK4GPIO12pull_up_downIA28_jEEv10PUD_STATUSRKT_ENKUlvE0_clEv>
    a224:	e51b0008 	ldr	r0, [fp, #-8]
    a228:	eb00000d 	bl	a264 <_ZN6UnrollILj103EE4callIZNK4GPIO12pull_up_downIA28_jEEv10PUD_STATUSRKT_EUlvE0_EEvS8_>
    a22c:	e320f000 	nop	{0}
    a230:	e24bd004 	sub	sp, fp, #4
    a234:	e8bd8800 	pop	{fp, pc}

0000a238 <_ZN6UnrollILj103EE4callIZNK4GPIO12pull_up_downIA28_jEEv10PUD_STATUSRKT_EUlvE_EEvS8_>:
    a238:	e92d4800 	push	{fp, lr}
    a23c:	e28db004 	add	fp, sp, #4
    a240:	e24dd008 	sub	sp, sp, #8
    a244:	e50b0008 	str	r0, [fp, #-8]
    a248:	e51b0008 	ldr	r0, [fp, #-8]
    a24c:	ebfffb85 	bl	9068 <_ZZNK4GPIO12pull_up_downIA28_jEEv10PUD_STATUSRKT_ENKUlvE_clEv>
    a250:	e51b0008 	ldr	r0, [fp, #-8]
    a254:	eb00000d 	bl	a290 <_ZN6UnrollILj102EE4callIZNK4GPIO12pull_up_downIA28_jEEv10PUD_STATUSRKT_EUlvE_EEvS8_>
    a258:	e320f000 	nop	{0}
    a25c:	e24bd004 	sub	sp, fp, #4
    a260:	e8bd8800 	pop	{fp, pc}

0000a264 <_ZN6UnrollILj103EE4callIZNK4GPIO12pull_up_downIA28_jEEv10PUD_STATUSRKT_EUlvE0_EEvS8_>:
    a264:	e92d4800 	push	{fp, lr}
    a268:	e28db004 	add	fp, sp, #4
    a26c:	e24dd008 	sub	sp, sp, #8
    a270:	e50b0008 	str	r0, [fp, #-8]
    a274:	e51b0008 	ldr	r0, [fp, #-8]
    a278:	ebfffb88 	bl	90a0 <_ZZNK4GPIO12pull_up_downIA28_jEEv10PUD_STATUSRKT_ENKUlvE0_clEv>
    a27c:	e51b0008 	ldr	r0, [fp, #-8]
    a280:	eb00000d 	bl	a2bc <_ZN6UnrollILj102EE4callIZNK4GPIO12pull_up_downIA28_jEEv10PUD_STATUSRKT_EUlvE0_EEvS8_>
    a284:	e320f000 	nop	{0}
    a288:	e24bd004 	sub	sp, fp, #4
    a28c:	e8bd8800 	pop	{fp, pc}

0000a290 <_ZN6UnrollILj102EE4callIZNK4GPIO12pull_up_downIA28_jEEv10PUD_STATUSRKT_EUlvE_EEvS8_>:
    a290:	e92d4800 	push	{fp, lr}
    a294:	e28db004 	add	fp, sp, #4
    a298:	e24dd008 	sub	sp, sp, #8
    a29c:	e50b0008 	str	r0, [fp, #-8]
    a2a0:	e51b0008 	ldr	r0, [fp, #-8]
    a2a4:	ebfffb6f 	bl	9068 <_ZZNK4GPIO12pull_up_downIA28_jEEv10PUD_STATUSRKT_ENKUlvE_clEv>
    a2a8:	e51b0008 	ldr	r0, [fp, #-8]
    a2ac:	eb00000d 	bl	a2e8 <_ZN6UnrollILj101EE4callIZNK4GPIO12pull_up_downIA28_jEEv10PUD_STATUSRKT_EUlvE_EEvS8_>
    a2b0:	e320f000 	nop	{0}
    a2b4:	e24bd004 	sub	sp, fp, #4
    a2b8:	e8bd8800 	pop	{fp, pc}

0000a2bc <_ZN6UnrollILj102EE4callIZNK4GPIO12pull_up_downIA28_jEEv10PUD_STATUSRKT_EUlvE0_EEvS8_>:
    a2bc:	e92d4800 	push	{fp, lr}
    a2c0:	e28db004 	add	fp, sp, #4
    a2c4:	e24dd008 	sub	sp, sp, #8
    a2c8:	e50b0008 	str	r0, [fp, #-8]
    a2cc:	e51b0008 	ldr	r0, [fp, #-8]
    a2d0:	ebfffb72 	bl	90a0 <_ZZNK4GPIO12pull_up_downIA28_jEEv10PUD_STATUSRKT_ENKUlvE0_clEv>
    a2d4:	e51b0008 	ldr	r0, [fp, #-8]
    a2d8:	eb00000d 	bl	a314 <_ZN6UnrollILj101EE4callIZNK4GPIO12pull_up_downIA28_jEEv10PUD_STATUSRKT_EUlvE0_EEvS8_>
    a2dc:	e320f000 	nop	{0}
    a2e0:	e24bd004 	sub	sp, fp, #4
    a2e4:	e8bd8800 	pop	{fp, pc}

0000a2e8 <_ZN6UnrollILj101EE4callIZNK4GPIO12pull_up_downIA28_jEEv10PUD_STATUSRKT_EUlvE_EEvS8_>:
    a2e8:	e92d4800 	push	{fp, lr}
    a2ec:	e28db004 	add	fp, sp, #4
    a2f0:	e24dd008 	sub	sp, sp, #8
    a2f4:	e50b0008 	str	r0, [fp, #-8]
    a2f8:	e51b0008 	ldr	r0, [fp, #-8]
    a2fc:	ebfffb59 	bl	9068 <_ZZNK4GPIO12pull_up_downIA28_jEEv10PUD_STATUSRKT_ENKUlvE_clEv>
    a300:	e51b0008 	ldr	r0, [fp, #-8]
    a304:	eb00000d 	bl	a340 <_ZN6UnrollILj100EE4callIZNK4GPIO12pull_up_downIA28_jEEv10PUD_STATUSRKT_EUlvE_EEvS8_>
    a308:	e320f000 	nop	{0}
    a30c:	e24bd004 	sub	sp, fp, #4
    a310:	e8bd8800 	pop	{fp, pc}

0000a314 <_ZN6UnrollILj101EE4callIZNK4GPIO12pull_up_downIA28_jEEv10PUD_STATUSRKT_EUlvE0_EEvS8_>:
    a314:	e92d4800 	push	{fp, lr}
    a318:	e28db004 	add	fp, sp, #4
    a31c:	e24dd008 	sub	sp, sp, #8
    a320:	e50b0008 	str	r0, [fp, #-8]
    a324:	e51b0008 	ldr	r0, [fp, #-8]
    a328:	ebfffb5c 	bl	90a0 <_ZZNK4GPIO12pull_up_downIA28_jEEv10PUD_STATUSRKT_ENKUlvE0_clEv>
    a32c:	e51b0008 	ldr	r0, [fp, #-8]
    a330:	eb00000d 	bl	a36c <_ZN6UnrollILj100EE4callIZNK4GPIO12pull_up_downIA28_jEEv10PUD_STATUSRKT_EUlvE0_EEvS8_>
    a334:	e320f000 	nop	{0}
    a338:	e24bd004 	sub	sp, fp, #4
    a33c:	e8bd8800 	pop	{fp, pc}

0000a340 <_ZN6UnrollILj100EE4callIZNK4GPIO12pull_up_downIA28_jEEv10PUD_STATUSRKT_EUlvE_EEvS8_>:
    a340:	e92d4800 	push	{fp, lr}
    a344:	e28db004 	add	fp, sp, #4
    a348:	e24dd008 	sub	sp, sp, #8
    a34c:	e50b0008 	str	r0, [fp, #-8]
    a350:	e51b0008 	ldr	r0, [fp, #-8]
    a354:	ebfffb43 	bl	9068 <_ZZNK4GPIO12pull_up_downIA28_jEEv10PUD_STATUSRKT_ENKUlvE_clEv>
    a358:	e51b0008 	ldr	r0, [fp, #-8]
    a35c:	eb00000d 	bl	a398 <_ZN6UnrollILj99EE4callIZNK4GPIO12pull_up_downIA28_jEEv10PUD_STATUSRKT_EUlvE_EEvS8_>
    a360:	e320f000 	nop	{0}
    a364:	e24bd004 	sub	sp, fp, #4
    a368:	e8bd8800 	pop	{fp, pc}

0000a36c <_ZN6UnrollILj100EE4callIZNK4GPIO12pull_up_downIA28_jEEv10PUD_STATUSRKT_EUlvE0_EEvS8_>:
    a36c:	e92d4800 	push	{fp, lr}
    a370:	e28db004 	add	fp, sp, #4
    a374:	e24dd008 	sub	sp, sp, #8
    a378:	e50b0008 	str	r0, [fp, #-8]
    a37c:	e51b0008 	ldr	r0, [fp, #-8]
    a380:	ebfffb46 	bl	90a0 <_ZZNK4GPIO12pull_up_downIA28_jEEv10PUD_STATUSRKT_ENKUlvE0_clEv>
    a384:	e51b0008 	ldr	r0, [fp, #-8]
    a388:	eb00000d 	bl	a3c4 <_ZN6UnrollILj99EE4callIZNK4GPIO12pull_up_downIA28_jEEv10PUD_STATUSRKT_EUlvE0_EEvS8_>
    a38c:	e320f000 	nop	{0}
    a390:	e24bd004 	sub	sp, fp, #4
    a394:	e8bd8800 	pop	{fp, pc}

0000a398 <_ZN6UnrollILj99EE4callIZNK4GPIO12pull_up_downIA28_jEEv10PUD_STATUSRKT_EUlvE_EEvS8_>:
    a398:	e92d4800 	push	{fp, lr}
    a39c:	e28db004 	add	fp, sp, #4
    a3a0:	e24dd008 	sub	sp, sp, #8
    a3a4:	e50b0008 	str	r0, [fp, #-8]
    a3a8:	e51b0008 	ldr	r0, [fp, #-8]
    a3ac:	ebfffb2d 	bl	9068 <_ZZNK4GPIO12pull_up_downIA28_jEEv10PUD_STATUSRKT_ENKUlvE_clEv>
    a3b0:	e51b0008 	ldr	r0, [fp, #-8]
    a3b4:	eb00000d 	bl	a3f0 <_ZN6UnrollILj98EE4callIZNK4GPIO12pull_up_downIA28_jEEv10PUD_STATUSRKT_EUlvE_EEvS8_>
    a3b8:	e320f000 	nop	{0}
    a3bc:	e24bd004 	sub	sp, fp, #4
    a3c0:	e8bd8800 	pop	{fp, pc}

0000a3c4 <_ZN6UnrollILj99EE4callIZNK4GPIO12pull_up_downIA28_jEEv10PUD_STATUSRKT_EUlvE0_EEvS8_>:
    a3c4:	e92d4800 	push	{fp, lr}
    a3c8:	e28db004 	add	fp, sp, #4
    a3cc:	e24dd008 	sub	sp, sp, #8
    a3d0:	e50b0008 	str	r0, [fp, #-8]
    a3d4:	e51b0008 	ldr	r0, [fp, #-8]
    a3d8:	ebfffb30 	bl	90a0 <_ZZNK4GPIO12pull_up_downIA28_jEEv10PUD_STATUSRKT_ENKUlvE0_clEv>
    a3dc:	e51b0008 	ldr	r0, [fp, #-8]
    a3e0:	eb00000d 	bl	a41c <_ZN6UnrollILj98EE4callIZNK4GPIO12pull_up_downIA28_jEEv10PUD_STATUSRKT_EUlvE0_EEvS8_>
    a3e4:	e320f000 	nop	{0}
    a3e8:	e24bd004 	sub	sp, fp, #4
    a3ec:	e8bd8800 	pop	{fp, pc}

0000a3f0 <_ZN6UnrollILj98EE4callIZNK4GPIO12pull_up_downIA28_jEEv10PUD_STATUSRKT_EUlvE_EEvS8_>:
    a3f0:	e92d4800 	push	{fp, lr}
    a3f4:	e28db004 	add	fp, sp, #4
    a3f8:	e24dd008 	sub	sp, sp, #8
    a3fc:	e50b0008 	str	r0, [fp, #-8]
    a400:	e51b0008 	ldr	r0, [fp, #-8]
    a404:	ebfffb17 	bl	9068 <_ZZNK4GPIO12pull_up_downIA28_jEEv10PUD_STATUSRKT_ENKUlvE_clEv>
    a408:	e51b0008 	ldr	r0, [fp, #-8]
    a40c:	eb00000d 	bl	a448 <_ZN6UnrollILj97EE4callIZNK4GPIO12pull_up_downIA28_jEEv10PUD_STATUSRKT_EUlvE_EEvS8_>
    a410:	e320f000 	nop	{0}
    a414:	e24bd004 	sub	sp, fp, #4
    a418:	e8bd8800 	pop	{fp, pc}

0000a41c <_ZN6UnrollILj98EE4callIZNK4GPIO12pull_up_downIA28_jEEv10PUD_STATUSRKT_EUlvE0_EEvS8_>:
    a41c:	e92d4800 	push	{fp, lr}
    a420:	e28db004 	add	fp, sp, #4
    a424:	e24dd008 	sub	sp, sp, #8
    a428:	e50b0008 	str	r0, [fp, #-8]
    a42c:	e51b0008 	ldr	r0, [fp, #-8]
    a430:	ebfffb1a 	bl	90a0 <_ZZNK4GPIO12pull_up_downIA28_jEEv10PUD_STATUSRKT_ENKUlvE0_clEv>
    a434:	e51b0008 	ldr	r0, [fp, #-8]
    a438:	eb00000d 	bl	a474 <_ZN6UnrollILj97EE4callIZNK4GPIO12pull_up_downIA28_jEEv10PUD_STATUSRKT_EUlvE0_EEvS8_>
    a43c:	e320f000 	nop	{0}
    a440:	e24bd004 	sub	sp, fp, #4
    a444:	e8bd8800 	pop	{fp, pc}

0000a448 <_ZN6UnrollILj97EE4callIZNK4GPIO12pull_up_downIA28_jEEv10PUD_STATUSRKT_EUlvE_EEvS8_>:
    a448:	e92d4800 	push	{fp, lr}
    a44c:	e28db004 	add	fp, sp, #4
    a450:	e24dd008 	sub	sp, sp, #8
    a454:	e50b0008 	str	r0, [fp, #-8]
    a458:	e51b0008 	ldr	r0, [fp, #-8]
    a45c:	ebfffb01 	bl	9068 <_ZZNK4GPIO12pull_up_downIA28_jEEv10PUD_STATUSRKT_ENKUlvE_clEv>
    a460:	e51b0008 	ldr	r0, [fp, #-8]
    a464:	eb00000d 	bl	a4a0 <_ZN6UnrollILj96EE4callIZNK4GPIO12pull_up_downIA28_jEEv10PUD_STATUSRKT_EUlvE_EEvS8_>
    a468:	e320f000 	nop	{0}
    a46c:	e24bd004 	sub	sp, fp, #4
    a470:	e8bd8800 	pop	{fp, pc}

0000a474 <_ZN6UnrollILj97EE4callIZNK4GPIO12pull_up_downIA28_jEEv10PUD_STATUSRKT_EUlvE0_EEvS8_>:
    a474:	e92d4800 	push	{fp, lr}
    a478:	e28db004 	add	fp, sp, #4
    a47c:	e24dd008 	sub	sp, sp, #8
    a480:	e50b0008 	str	r0, [fp, #-8]
    a484:	e51b0008 	ldr	r0, [fp, #-8]
    a488:	ebfffb04 	bl	90a0 <_ZZNK4GPIO12pull_up_downIA28_jEEv10PUD_STATUSRKT_ENKUlvE0_clEv>
    a48c:	e51b0008 	ldr	r0, [fp, #-8]
    a490:	eb00000d 	bl	a4cc <_ZN6UnrollILj96EE4callIZNK4GPIO12pull_up_downIA28_jEEv10PUD_STATUSRKT_EUlvE0_EEvS8_>
    a494:	e320f000 	nop	{0}
    a498:	e24bd004 	sub	sp, fp, #4
    a49c:	e8bd8800 	pop	{fp, pc}

0000a4a0 <_ZN6UnrollILj96EE4callIZNK4GPIO12pull_up_downIA28_jEEv10PUD_STATUSRKT_EUlvE_EEvS8_>:
    a4a0:	e92d4800 	push	{fp, lr}
    a4a4:	e28db004 	add	fp, sp, #4
    a4a8:	e24dd008 	sub	sp, sp, #8
    a4ac:	e50b0008 	str	r0, [fp, #-8]
    a4b0:	e51b0008 	ldr	r0, [fp, #-8]
    a4b4:	ebfffaeb 	bl	9068 <_ZZNK4GPIO12pull_up_downIA28_jEEv10PUD_STATUSRKT_ENKUlvE_clEv>
    a4b8:	e51b0008 	ldr	r0, [fp, #-8]
    a4bc:	eb00000d 	bl	a4f8 <_ZN6UnrollILj95EE4callIZNK4GPIO12pull_up_downIA28_jEEv10PUD_STATUSRKT_EUlvE_EEvS8_>
    a4c0:	e320f000 	nop	{0}
    a4c4:	e24bd004 	sub	sp, fp, #4
    a4c8:	e8bd8800 	pop	{fp, pc}

0000a4cc <_ZN6UnrollILj96EE4callIZNK4GPIO12pull_up_downIA28_jEEv10PUD_STATUSRKT_EUlvE0_EEvS8_>:
    a4cc:	e92d4800 	push	{fp, lr}
    a4d0:	e28db004 	add	fp, sp, #4
    a4d4:	e24dd008 	sub	sp, sp, #8
    a4d8:	e50b0008 	str	r0, [fp, #-8]
    a4dc:	e51b0008 	ldr	r0, [fp, #-8]
    a4e0:	ebfffaee 	bl	90a0 <_ZZNK4GPIO12pull_up_downIA28_jEEv10PUD_STATUSRKT_ENKUlvE0_clEv>
    a4e4:	e51b0008 	ldr	r0, [fp, #-8]
    a4e8:	eb00000d 	bl	a524 <_ZN6UnrollILj95EE4callIZNK4GPIO12pull_up_downIA28_jEEv10PUD_STATUSRKT_EUlvE0_EEvS8_>
    a4ec:	e320f000 	nop	{0}
    a4f0:	e24bd004 	sub	sp, fp, #4
    a4f4:	e8bd8800 	pop	{fp, pc}

0000a4f8 <_ZN6UnrollILj95EE4callIZNK4GPIO12pull_up_downIA28_jEEv10PUD_STATUSRKT_EUlvE_EEvS8_>:
    a4f8:	e92d4800 	push	{fp, lr}
    a4fc:	e28db004 	add	fp, sp, #4
    a500:	e24dd008 	sub	sp, sp, #8
    a504:	e50b0008 	str	r0, [fp, #-8]
    a508:	e51b0008 	ldr	r0, [fp, #-8]
    a50c:	ebfffad5 	bl	9068 <_ZZNK4GPIO12pull_up_downIA28_jEEv10PUD_STATUSRKT_ENKUlvE_clEv>
    a510:	e51b0008 	ldr	r0, [fp, #-8]
    a514:	eb00000d 	bl	a550 <_ZN6UnrollILj94EE4callIZNK4GPIO12pull_up_downIA28_jEEv10PUD_STATUSRKT_EUlvE_EEvS8_>
    a518:	e320f000 	nop	{0}
    a51c:	e24bd004 	sub	sp, fp, #4
    a520:	e8bd8800 	pop	{fp, pc}

0000a524 <_ZN6UnrollILj95EE4callIZNK4GPIO12pull_up_downIA28_jEEv10PUD_STATUSRKT_EUlvE0_EEvS8_>:
    a524:	e92d4800 	push	{fp, lr}
    a528:	e28db004 	add	fp, sp, #4
    a52c:	e24dd008 	sub	sp, sp, #8
    a530:	e50b0008 	str	r0, [fp, #-8]
    a534:	e51b0008 	ldr	r0, [fp, #-8]
    a538:	ebfffad8 	bl	90a0 <_ZZNK4GPIO12pull_up_downIA28_jEEv10PUD_STATUSRKT_ENKUlvE0_clEv>
    a53c:	e51b0008 	ldr	r0, [fp, #-8]
    a540:	eb00000d 	bl	a57c <_ZN6UnrollILj94EE4callIZNK4GPIO12pull_up_downIA28_jEEv10PUD_STATUSRKT_EUlvE0_EEvS8_>
    a544:	e320f000 	nop	{0}
    a548:	e24bd004 	sub	sp, fp, #4
    a54c:	e8bd8800 	pop	{fp, pc}

0000a550 <_ZN6UnrollILj94EE4callIZNK4GPIO12pull_up_downIA28_jEEv10PUD_STATUSRKT_EUlvE_EEvS8_>:
    a550:	e92d4800 	push	{fp, lr}
    a554:	e28db004 	add	fp, sp, #4
    a558:	e24dd008 	sub	sp, sp, #8
    a55c:	e50b0008 	str	r0, [fp, #-8]
    a560:	e51b0008 	ldr	r0, [fp, #-8]
    a564:	ebfffabf 	bl	9068 <_ZZNK4GPIO12pull_up_downIA28_jEEv10PUD_STATUSRKT_ENKUlvE_clEv>
    a568:	e51b0008 	ldr	r0, [fp, #-8]
    a56c:	eb00000d 	bl	a5a8 <_ZN6UnrollILj93EE4callIZNK4GPIO12pull_up_downIA28_jEEv10PUD_STATUSRKT_EUlvE_EEvS8_>
    a570:	e320f000 	nop	{0}
    a574:	e24bd004 	sub	sp, fp, #4
    a578:	e8bd8800 	pop	{fp, pc}

0000a57c <_ZN6UnrollILj94EE4callIZNK4GPIO12pull_up_downIA28_jEEv10PUD_STATUSRKT_EUlvE0_EEvS8_>:
    a57c:	e92d4800 	push	{fp, lr}
    a580:	e28db004 	add	fp, sp, #4
    a584:	e24dd008 	sub	sp, sp, #8
    a588:	e50b0008 	str	r0, [fp, #-8]
    a58c:	e51b0008 	ldr	r0, [fp, #-8]
    a590:	ebfffac2 	bl	90a0 <_ZZNK4GPIO12pull_up_downIA28_jEEv10PUD_STATUSRKT_ENKUlvE0_clEv>
    a594:	e51b0008 	ldr	r0, [fp, #-8]
    a598:	eb00000d 	bl	a5d4 <_ZN6UnrollILj93EE4callIZNK4GPIO12pull_up_downIA28_jEEv10PUD_STATUSRKT_EUlvE0_EEvS8_>
    a59c:	e320f000 	nop	{0}
    a5a0:	e24bd004 	sub	sp, fp, #4
    a5a4:	e8bd8800 	pop	{fp, pc}

0000a5a8 <_ZN6UnrollILj93EE4callIZNK4GPIO12pull_up_downIA28_jEEv10PUD_STATUSRKT_EUlvE_EEvS8_>:
    a5a8:	e92d4800 	push	{fp, lr}
    a5ac:	e28db004 	add	fp, sp, #4
    a5b0:	e24dd008 	sub	sp, sp, #8
    a5b4:	e50b0008 	str	r0, [fp, #-8]
    a5b8:	e51b0008 	ldr	r0, [fp, #-8]
    a5bc:	ebfffaa9 	bl	9068 <_ZZNK4GPIO12pull_up_downIA28_jEEv10PUD_STATUSRKT_ENKUlvE_clEv>
    a5c0:	e51b0008 	ldr	r0, [fp, #-8]
    a5c4:	eb00000d 	bl	a600 <_ZN6UnrollILj92EE4callIZNK4GPIO12pull_up_downIA28_jEEv10PUD_STATUSRKT_EUlvE_EEvS8_>
    a5c8:	e320f000 	nop	{0}
    a5cc:	e24bd004 	sub	sp, fp, #4
    a5d0:	e8bd8800 	pop	{fp, pc}

0000a5d4 <_ZN6UnrollILj93EE4callIZNK4GPIO12pull_up_downIA28_jEEv10PUD_STATUSRKT_EUlvE0_EEvS8_>:
    a5d4:	e92d4800 	push	{fp, lr}
    a5d8:	e28db004 	add	fp, sp, #4
    a5dc:	e24dd008 	sub	sp, sp, #8
    a5e0:	e50b0008 	str	r0, [fp, #-8]
    a5e4:	e51b0008 	ldr	r0, [fp, #-8]
    a5e8:	ebfffaac 	bl	90a0 <_ZZNK4GPIO12pull_up_downIA28_jEEv10PUD_STATUSRKT_ENKUlvE0_clEv>
    a5ec:	e51b0008 	ldr	r0, [fp, #-8]
    a5f0:	eb00000d 	bl	a62c <_ZN6UnrollILj92EE4callIZNK4GPIO12pull_up_downIA28_jEEv10PUD_STATUSRKT_EUlvE0_EEvS8_>
    a5f4:	e320f000 	nop	{0}
    a5f8:	e24bd004 	sub	sp, fp, #4
    a5fc:	e8bd8800 	pop	{fp, pc}

0000a600 <_ZN6UnrollILj92EE4callIZNK4GPIO12pull_up_downIA28_jEEv10PUD_STATUSRKT_EUlvE_EEvS8_>:
    a600:	e92d4800 	push	{fp, lr}
    a604:	e28db004 	add	fp, sp, #4
    a608:	e24dd008 	sub	sp, sp, #8
    a60c:	e50b0008 	str	r0, [fp, #-8]
    a610:	e51b0008 	ldr	r0, [fp, #-8]
    a614:	ebfffa93 	bl	9068 <_ZZNK4GPIO12pull_up_downIA28_jEEv10PUD_STATUSRKT_ENKUlvE_clEv>
    a618:	e51b0008 	ldr	r0, [fp, #-8]
    a61c:	eb00000d 	bl	a658 <_ZN6UnrollILj91EE4callIZNK4GPIO12pull_up_downIA28_jEEv10PUD_STATUSRKT_EUlvE_EEvS8_>
    a620:	e320f000 	nop	{0}
    a624:	e24bd004 	sub	sp, fp, #4
    a628:	e8bd8800 	pop	{fp, pc}

0000a62c <_ZN6UnrollILj92EE4callIZNK4GPIO12pull_up_downIA28_jEEv10PUD_STATUSRKT_EUlvE0_EEvS8_>:
    a62c:	e92d4800 	push	{fp, lr}
    a630:	e28db004 	add	fp, sp, #4
    a634:	e24dd008 	sub	sp, sp, #8
    a638:	e50b0008 	str	r0, [fp, #-8]
    a63c:	e51b0008 	ldr	r0, [fp, #-8]
    a640:	ebfffa96 	bl	90a0 <_ZZNK4GPIO12pull_up_downIA28_jEEv10PUD_STATUSRKT_ENKUlvE0_clEv>
    a644:	e51b0008 	ldr	r0, [fp, #-8]
    a648:	eb00000d 	bl	a684 <_ZN6UnrollILj91EE4callIZNK4GPIO12pull_up_downIA28_jEEv10PUD_STATUSRKT_EUlvE0_EEvS8_>
    a64c:	e320f000 	nop	{0}
    a650:	e24bd004 	sub	sp, fp, #4
    a654:	e8bd8800 	pop	{fp, pc}

0000a658 <_ZN6UnrollILj91EE4callIZNK4GPIO12pull_up_downIA28_jEEv10PUD_STATUSRKT_EUlvE_EEvS8_>:
    a658:	e92d4800 	push	{fp, lr}
    a65c:	e28db004 	add	fp, sp, #4
    a660:	e24dd008 	sub	sp, sp, #8
    a664:	e50b0008 	str	r0, [fp, #-8]
    a668:	e51b0008 	ldr	r0, [fp, #-8]
    a66c:	ebfffa7d 	bl	9068 <_ZZNK4GPIO12pull_up_downIA28_jEEv10PUD_STATUSRKT_ENKUlvE_clEv>
    a670:	e51b0008 	ldr	r0, [fp, #-8]
    a674:	eb00000d 	bl	a6b0 <_ZN6UnrollILj90EE4callIZNK4GPIO12pull_up_downIA28_jEEv10PUD_STATUSRKT_EUlvE_EEvS8_>
    a678:	e320f000 	nop	{0}
    a67c:	e24bd004 	sub	sp, fp, #4
    a680:	e8bd8800 	pop	{fp, pc}

0000a684 <_ZN6UnrollILj91EE4callIZNK4GPIO12pull_up_downIA28_jEEv10PUD_STATUSRKT_EUlvE0_EEvS8_>:
    a684:	e92d4800 	push	{fp, lr}
    a688:	e28db004 	add	fp, sp, #4
    a68c:	e24dd008 	sub	sp, sp, #8
    a690:	e50b0008 	str	r0, [fp, #-8]
    a694:	e51b0008 	ldr	r0, [fp, #-8]
    a698:	ebfffa80 	bl	90a0 <_ZZNK4GPIO12pull_up_downIA28_jEEv10PUD_STATUSRKT_ENKUlvE0_clEv>
    a69c:	e51b0008 	ldr	r0, [fp, #-8]
    a6a0:	eb00000d 	bl	a6dc <_ZN6UnrollILj90EE4callIZNK4GPIO12pull_up_downIA28_jEEv10PUD_STATUSRKT_EUlvE0_EEvS8_>
    a6a4:	e320f000 	nop	{0}
    a6a8:	e24bd004 	sub	sp, fp, #4
    a6ac:	e8bd8800 	pop	{fp, pc}

0000a6b0 <_ZN6UnrollILj90EE4callIZNK4GPIO12pull_up_downIA28_jEEv10PUD_STATUSRKT_EUlvE_EEvS8_>:
    a6b0:	e92d4800 	push	{fp, lr}
    a6b4:	e28db004 	add	fp, sp, #4
    a6b8:	e24dd008 	sub	sp, sp, #8
    a6bc:	e50b0008 	str	r0, [fp, #-8]
    a6c0:	e51b0008 	ldr	r0, [fp, #-8]
    a6c4:	ebfffa67 	bl	9068 <_ZZNK4GPIO12pull_up_downIA28_jEEv10PUD_STATUSRKT_ENKUlvE_clEv>
    a6c8:	e51b0008 	ldr	r0, [fp, #-8]
    a6cc:	eb00000d 	bl	a708 <_ZN6UnrollILj89EE4callIZNK4GPIO12pull_up_downIA28_jEEv10PUD_STATUSRKT_EUlvE_EEvS8_>
    a6d0:	e320f000 	nop	{0}
    a6d4:	e24bd004 	sub	sp, fp, #4
    a6d8:	e8bd8800 	pop	{fp, pc}

0000a6dc <_ZN6UnrollILj90EE4callIZNK4GPIO12pull_up_downIA28_jEEv10PUD_STATUSRKT_EUlvE0_EEvS8_>:
    a6dc:	e92d4800 	push	{fp, lr}
    a6e0:	e28db004 	add	fp, sp, #4
    a6e4:	e24dd008 	sub	sp, sp, #8
    a6e8:	e50b0008 	str	r0, [fp, #-8]
    a6ec:	e51b0008 	ldr	r0, [fp, #-8]
    a6f0:	ebfffa6a 	bl	90a0 <_ZZNK4GPIO12pull_up_downIA28_jEEv10PUD_STATUSRKT_ENKUlvE0_clEv>
    a6f4:	e51b0008 	ldr	r0, [fp, #-8]
    a6f8:	eb00000d 	bl	a734 <_ZN6UnrollILj89EE4callIZNK4GPIO12pull_up_downIA28_jEEv10PUD_STATUSRKT_EUlvE0_EEvS8_>
    a6fc:	e320f000 	nop	{0}
    a700:	e24bd004 	sub	sp, fp, #4
    a704:	e8bd8800 	pop	{fp, pc}

0000a708 <_ZN6UnrollILj89EE4callIZNK4GPIO12pull_up_downIA28_jEEv10PUD_STATUSRKT_EUlvE_EEvS8_>:
    a708:	e92d4800 	push	{fp, lr}
    a70c:	e28db004 	add	fp, sp, #4
    a710:	e24dd008 	sub	sp, sp, #8
    a714:	e50b0008 	str	r0, [fp, #-8]
    a718:	e51b0008 	ldr	r0, [fp, #-8]
    a71c:	ebfffa51 	bl	9068 <_ZZNK4GPIO12pull_up_downIA28_jEEv10PUD_STATUSRKT_ENKUlvE_clEv>
    a720:	e51b0008 	ldr	r0, [fp, #-8]
    a724:	eb00000d 	bl	a760 <_ZN6UnrollILj88EE4callIZNK4GPIO12pull_up_downIA28_jEEv10PUD_STATUSRKT_EUlvE_EEvS8_>
    a728:	e320f000 	nop	{0}
    a72c:	e24bd004 	sub	sp, fp, #4
    a730:	e8bd8800 	pop	{fp, pc}

0000a734 <_ZN6UnrollILj89EE4callIZNK4GPIO12pull_up_downIA28_jEEv10PUD_STATUSRKT_EUlvE0_EEvS8_>:
    a734:	e92d4800 	push	{fp, lr}
    a738:	e28db004 	add	fp, sp, #4
    a73c:	e24dd008 	sub	sp, sp, #8
    a740:	e50b0008 	str	r0, [fp, #-8]
    a744:	e51b0008 	ldr	r0, [fp, #-8]
    a748:	ebfffa54 	bl	90a0 <_ZZNK4GPIO12pull_up_downIA28_jEEv10PUD_STATUSRKT_ENKUlvE0_clEv>
    a74c:	e51b0008 	ldr	r0, [fp, #-8]
    a750:	eb00000d 	bl	a78c <_ZN6UnrollILj88EE4callIZNK4GPIO12pull_up_downIA28_jEEv10PUD_STATUSRKT_EUlvE0_EEvS8_>
    a754:	e320f000 	nop	{0}
    a758:	e24bd004 	sub	sp, fp, #4
    a75c:	e8bd8800 	pop	{fp, pc}

0000a760 <_ZN6UnrollILj88EE4callIZNK4GPIO12pull_up_downIA28_jEEv10PUD_STATUSRKT_EUlvE_EEvS8_>:
    a760:	e92d4800 	push	{fp, lr}
    a764:	e28db004 	add	fp, sp, #4
    a768:	e24dd008 	sub	sp, sp, #8
    a76c:	e50b0008 	str	r0, [fp, #-8]
    a770:	e51b0008 	ldr	r0, [fp, #-8]
    a774:	ebfffa3b 	bl	9068 <_ZZNK4GPIO12pull_up_downIA28_jEEv10PUD_STATUSRKT_ENKUlvE_clEv>
    a778:	e51b0008 	ldr	r0, [fp, #-8]
    a77c:	eb00000d 	bl	a7b8 <_ZN6UnrollILj87EE4callIZNK4GPIO12pull_up_downIA28_jEEv10PUD_STATUSRKT_EUlvE_EEvS8_>
    a780:	e320f000 	nop	{0}
    a784:	e24bd004 	sub	sp, fp, #4
    a788:	e8bd8800 	pop	{fp, pc}

0000a78c <_ZN6UnrollILj88EE4callIZNK4GPIO12pull_up_downIA28_jEEv10PUD_STATUSRKT_EUlvE0_EEvS8_>:
    a78c:	e92d4800 	push	{fp, lr}
    a790:	e28db004 	add	fp, sp, #4
    a794:	e24dd008 	sub	sp, sp, #8
    a798:	e50b0008 	str	r0, [fp, #-8]
    a79c:	e51b0008 	ldr	r0, [fp, #-8]
    a7a0:	ebfffa3e 	bl	90a0 <_ZZNK4GPIO12pull_up_downIA28_jEEv10PUD_STATUSRKT_ENKUlvE0_clEv>
    a7a4:	e51b0008 	ldr	r0, [fp, #-8]
    a7a8:	eb00000d 	bl	a7e4 <_ZN6UnrollILj87EE4callIZNK4GPIO12pull_up_downIA28_jEEv10PUD_STATUSRKT_EUlvE0_EEvS8_>
    a7ac:	e320f000 	nop	{0}
    a7b0:	e24bd004 	sub	sp, fp, #4
    a7b4:	e8bd8800 	pop	{fp, pc}

0000a7b8 <_ZN6UnrollILj87EE4callIZNK4GPIO12pull_up_downIA28_jEEv10PUD_STATUSRKT_EUlvE_EEvS8_>:
    a7b8:	e92d4800 	push	{fp, lr}
    a7bc:	e28db004 	add	fp, sp, #4
    a7c0:	e24dd008 	sub	sp, sp, #8
    a7c4:	e50b0008 	str	r0, [fp, #-8]
    a7c8:	e51b0008 	ldr	r0, [fp, #-8]
    a7cc:	ebfffa25 	bl	9068 <_ZZNK4GPIO12pull_up_downIA28_jEEv10PUD_STATUSRKT_ENKUlvE_clEv>
    a7d0:	e51b0008 	ldr	r0, [fp, #-8]
    a7d4:	eb00000d 	bl	a810 <_ZN6UnrollILj86EE4callIZNK4GPIO12pull_up_downIA28_jEEv10PUD_STATUSRKT_EUlvE_EEvS8_>
    a7d8:	e320f000 	nop	{0}
    a7dc:	e24bd004 	sub	sp, fp, #4
    a7e0:	e8bd8800 	pop	{fp, pc}

0000a7e4 <_ZN6UnrollILj87EE4callIZNK4GPIO12pull_up_downIA28_jEEv10PUD_STATUSRKT_EUlvE0_EEvS8_>:
    a7e4:	e92d4800 	push	{fp, lr}
    a7e8:	e28db004 	add	fp, sp, #4
    a7ec:	e24dd008 	sub	sp, sp, #8
    a7f0:	e50b0008 	str	r0, [fp, #-8]
    a7f4:	e51b0008 	ldr	r0, [fp, #-8]
    a7f8:	ebfffa28 	bl	90a0 <_ZZNK4GPIO12pull_up_downIA28_jEEv10PUD_STATUSRKT_ENKUlvE0_clEv>
    a7fc:	e51b0008 	ldr	r0, [fp, #-8]
    a800:	eb00000d 	bl	a83c <_ZN6UnrollILj86EE4callIZNK4GPIO12pull_up_downIA28_jEEv10PUD_STATUSRKT_EUlvE0_EEvS8_>
    a804:	e320f000 	nop	{0}
    a808:	e24bd004 	sub	sp, fp, #4
    a80c:	e8bd8800 	pop	{fp, pc}

0000a810 <_ZN6UnrollILj86EE4callIZNK4GPIO12pull_up_downIA28_jEEv10PUD_STATUSRKT_EUlvE_EEvS8_>:
    a810:	e92d4800 	push	{fp, lr}
    a814:	e28db004 	add	fp, sp, #4
    a818:	e24dd008 	sub	sp, sp, #8
    a81c:	e50b0008 	str	r0, [fp, #-8]
    a820:	e51b0008 	ldr	r0, [fp, #-8]
    a824:	ebfffa0f 	bl	9068 <_ZZNK4GPIO12pull_up_downIA28_jEEv10PUD_STATUSRKT_ENKUlvE_clEv>
    a828:	e51b0008 	ldr	r0, [fp, #-8]
    a82c:	eb00000d 	bl	a868 <_ZN6UnrollILj85EE4callIZNK4GPIO12pull_up_downIA28_jEEv10PUD_STATUSRKT_EUlvE_EEvS8_>
    a830:	e320f000 	nop	{0}
    a834:	e24bd004 	sub	sp, fp, #4
    a838:	e8bd8800 	pop	{fp, pc}

0000a83c <_ZN6UnrollILj86EE4callIZNK4GPIO12pull_up_downIA28_jEEv10PUD_STATUSRKT_EUlvE0_EEvS8_>:
    a83c:	e92d4800 	push	{fp, lr}
    a840:	e28db004 	add	fp, sp, #4
    a844:	e24dd008 	sub	sp, sp, #8
    a848:	e50b0008 	str	r0, [fp, #-8]
    a84c:	e51b0008 	ldr	r0, [fp, #-8]
    a850:	ebfffa12 	bl	90a0 <_ZZNK4GPIO12pull_up_downIA28_jEEv10PUD_STATUSRKT_ENKUlvE0_clEv>
    a854:	e51b0008 	ldr	r0, [fp, #-8]
    a858:	eb00000d 	bl	a894 <_ZN6UnrollILj85EE4callIZNK4GPIO12pull_up_downIA28_jEEv10PUD_STATUSRKT_EUlvE0_EEvS8_>
    a85c:	e320f000 	nop	{0}
    a860:	e24bd004 	sub	sp, fp, #4
    a864:	e8bd8800 	pop	{fp, pc}

0000a868 <_ZN6UnrollILj85EE4callIZNK4GPIO12pull_up_downIA28_jEEv10PUD_STATUSRKT_EUlvE_EEvS8_>:
    a868:	e92d4800 	push	{fp, lr}
    a86c:	e28db004 	add	fp, sp, #4
    a870:	e24dd008 	sub	sp, sp, #8
    a874:	e50b0008 	str	r0, [fp, #-8]
    a878:	e51b0008 	ldr	r0, [fp, #-8]
    a87c:	ebfff9f9 	bl	9068 <_ZZNK4GPIO12pull_up_downIA28_jEEv10PUD_STATUSRKT_ENKUlvE_clEv>
    a880:	e51b0008 	ldr	r0, [fp, #-8]
    a884:	eb00000d 	bl	a8c0 <_ZN6UnrollILj84EE4callIZNK4GPIO12pull_up_downIA28_jEEv10PUD_STATUSRKT_EUlvE_EEvS8_>
    a888:	e320f000 	nop	{0}
    a88c:	e24bd004 	sub	sp, fp, #4
    a890:	e8bd8800 	pop	{fp, pc}

0000a894 <_ZN6UnrollILj85EE4callIZNK4GPIO12pull_up_downIA28_jEEv10PUD_STATUSRKT_EUlvE0_EEvS8_>:
    a894:	e92d4800 	push	{fp, lr}
    a898:	e28db004 	add	fp, sp, #4
    a89c:	e24dd008 	sub	sp, sp, #8
    a8a0:	e50b0008 	str	r0, [fp, #-8]
    a8a4:	e51b0008 	ldr	r0, [fp, #-8]
    a8a8:	ebfff9fc 	bl	90a0 <_ZZNK4GPIO12pull_up_downIA28_jEEv10PUD_STATUSRKT_ENKUlvE0_clEv>
    a8ac:	e51b0008 	ldr	r0, [fp, #-8]
    a8b0:	eb00000d 	bl	a8ec <_ZN6UnrollILj84EE4callIZNK4GPIO12pull_up_downIA28_jEEv10PUD_STATUSRKT_EUlvE0_EEvS8_>
    a8b4:	e320f000 	nop	{0}
    a8b8:	e24bd004 	sub	sp, fp, #4
    a8bc:	e8bd8800 	pop	{fp, pc}

0000a8c0 <_ZN6UnrollILj84EE4callIZNK4GPIO12pull_up_downIA28_jEEv10PUD_STATUSRKT_EUlvE_EEvS8_>:
    a8c0:	e92d4800 	push	{fp, lr}
    a8c4:	e28db004 	add	fp, sp, #4
    a8c8:	e24dd008 	sub	sp, sp, #8
    a8cc:	e50b0008 	str	r0, [fp, #-8]
    a8d0:	e51b0008 	ldr	r0, [fp, #-8]
    a8d4:	ebfff9e3 	bl	9068 <_ZZNK4GPIO12pull_up_downIA28_jEEv10PUD_STATUSRKT_ENKUlvE_clEv>
    a8d8:	e51b0008 	ldr	r0, [fp, #-8]
    a8dc:	eb00000d 	bl	a918 <_ZN6UnrollILj83EE4callIZNK4GPIO12pull_up_downIA28_jEEv10PUD_STATUSRKT_EUlvE_EEvS8_>
    a8e0:	e320f000 	nop	{0}
    a8e4:	e24bd004 	sub	sp, fp, #4
    a8e8:	e8bd8800 	pop	{fp, pc}

0000a8ec <_ZN6UnrollILj84EE4callIZNK4GPIO12pull_up_downIA28_jEEv10PUD_STATUSRKT_EUlvE0_EEvS8_>:
    a8ec:	e92d4800 	push	{fp, lr}
    a8f0:	e28db004 	add	fp, sp, #4
    a8f4:	e24dd008 	sub	sp, sp, #8
    a8f8:	e50b0008 	str	r0, [fp, #-8]
    a8fc:	e51b0008 	ldr	r0, [fp, #-8]
    a900:	ebfff9e6 	bl	90a0 <_ZZNK4GPIO12pull_up_downIA28_jEEv10PUD_STATUSRKT_ENKUlvE0_clEv>
    a904:	e51b0008 	ldr	r0, [fp, #-8]
    a908:	eb00000d 	bl	a944 <_ZN6UnrollILj83EE4callIZNK4GPIO12pull_up_downIA28_jEEv10PUD_STATUSRKT_EUlvE0_EEvS8_>
    a90c:	e320f000 	nop	{0}
    a910:	e24bd004 	sub	sp, fp, #4
    a914:	e8bd8800 	pop	{fp, pc}

0000a918 <_ZN6UnrollILj83EE4callIZNK4GPIO12pull_up_downIA28_jEEv10PUD_STATUSRKT_EUlvE_EEvS8_>:
    a918:	e92d4800 	push	{fp, lr}
    a91c:	e28db004 	add	fp, sp, #4
    a920:	e24dd008 	sub	sp, sp, #8
    a924:	e50b0008 	str	r0, [fp, #-8]
    a928:	e51b0008 	ldr	r0, [fp, #-8]
    a92c:	ebfff9cd 	bl	9068 <_ZZNK4GPIO12pull_up_downIA28_jEEv10PUD_STATUSRKT_ENKUlvE_clEv>
    a930:	e51b0008 	ldr	r0, [fp, #-8]
    a934:	eb00000d 	bl	a970 <_ZN6UnrollILj82EE4callIZNK4GPIO12pull_up_downIA28_jEEv10PUD_STATUSRKT_EUlvE_EEvS8_>
    a938:	e320f000 	nop	{0}
    a93c:	e24bd004 	sub	sp, fp, #4
    a940:	e8bd8800 	pop	{fp, pc}

0000a944 <_ZN6UnrollILj83EE4callIZNK4GPIO12pull_up_downIA28_jEEv10PUD_STATUSRKT_EUlvE0_EEvS8_>:
    a944:	e92d4800 	push	{fp, lr}
    a948:	e28db004 	add	fp, sp, #4
    a94c:	e24dd008 	sub	sp, sp, #8
    a950:	e50b0008 	str	r0, [fp, #-8]
    a954:	e51b0008 	ldr	r0, [fp, #-8]
    a958:	ebfff9d0 	bl	90a0 <_ZZNK4GPIO12pull_up_downIA28_jEEv10PUD_STATUSRKT_ENKUlvE0_clEv>
    a95c:	e51b0008 	ldr	r0, [fp, #-8]
    a960:	eb00000d 	bl	a99c <_ZN6UnrollILj82EE4callIZNK4GPIO12pull_up_downIA28_jEEv10PUD_STATUSRKT_EUlvE0_EEvS8_>
    a964:	e320f000 	nop	{0}
    a968:	e24bd004 	sub	sp, fp, #4
    a96c:	e8bd8800 	pop	{fp, pc}

0000a970 <_ZN6UnrollILj82EE4callIZNK4GPIO12pull_up_downIA28_jEEv10PUD_STATUSRKT_EUlvE_EEvS8_>:
    a970:	e92d4800 	push	{fp, lr}
    a974:	e28db004 	add	fp, sp, #4
    a978:	e24dd008 	sub	sp, sp, #8
    a97c:	e50b0008 	str	r0, [fp, #-8]
    a980:	e51b0008 	ldr	r0, [fp, #-8]
    a984:	ebfff9b7 	bl	9068 <_ZZNK4GPIO12pull_up_downIA28_jEEv10PUD_STATUSRKT_ENKUlvE_clEv>
    a988:	e51b0008 	ldr	r0, [fp, #-8]
    a98c:	eb00000d 	bl	a9c8 <_ZN6UnrollILj81EE4callIZNK4GPIO12pull_up_downIA28_jEEv10PUD_STATUSRKT_EUlvE_EEvS8_>
    a990:	e320f000 	nop	{0}
    a994:	e24bd004 	sub	sp, fp, #4
    a998:	e8bd8800 	pop	{fp, pc}

0000a99c <_ZN6UnrollILj82EE4callIZNK4GPIO12pull_up_downIA28_jEEv10PUD_STATUSRKT_EUlvE0_EEvS8_>:
    a99c:	e92d4800 	push	{fp, lr}
    a9a0:	e28db004 	add	fp, sp, #4
    a9a4:	e24dd008 	sub	sp, sp, #8
    a9a8:	e50b0008 	str	r0, [fp, #-8]
    a9ac:	e51b0008 	ldr	r0, [fp, #-8]
    a9b0:	ebfff9ba 	bl	90a0 <_ZZNK4GPIO12pull_up_downIA28_jEEv10PUD_STATUSRKT_ENKUlvE0_clEv>
    a9b4:	e51b0008 	ldr	r0, [fp, #-8]
    a9b8:	eb00000d 	bl	a9f4 <_ZN6UnrollILj81EE4callIZNK4GPIO12pull_up_downIA28_jEEv10PUD_STATUSRKT_EUlvE0_EEvS8_>
    a9bc:	e320f000 	nop	{0}
    a9c0:	e24bd004 	sub	sp, fp, #4
    a9c4:	e8bd8800 	pop	{fp, pc}

0000a9c8 <_ZN6UnrollILj81EE4callIZNK4GPIO12pull_up_downIA28_jEEv10PUD_STATUSRKT_EUlvE_EEvS8_>:
    a9c8:	e92d4800 	push	{fp, lr}
    a9cc:	e28db004 	add	fp, sp, #4
    a9d0:	e24dd008 	sub	sp, sp, #8
    a9d4:	e50b0008 	str	r0, [fp, #-8]
    a9d8:	e51b0008 	ldr	r0, [fp, #-8]
    a9dc:	ebfff9a1 	bl	9068 <_ZZNK4GPIO12pull_up_downIA28_jEEv10PUD_STATUSRKT_ENKUlvE_clEv>
    a9e0:	e51b0008 	ldr	r0, [fp, #-8]
    a9e4:	eb00000d 	bl	aa20 <_ZN6UnrollILj80EE4callIZNK4GPIO12pull_up_downIA28_jEEv10PUD_STATUSRKT_EUlvE_EEvS8_>
    a9e8:	e320f000 	nop	{0}
    a9ec:	e24bd004 	sub	sp, fp, #4
    a9f0:	e8bd8800 	pop	{fp, pc}

0000a9f4 <_ZN6UnrollILj81EE4callIZNK4GPIO12pull_up_downIA28_jEEv10PUD_STATUSRKT_EUlvE0_EEvS8_>:
    a9f4:	e92d4800 	push	{fp, lr}
    a9f8:	e28db004 	add	fp, sp, #4
    a9fc:	e24dd008 	sub	sp, sp, #8
    aa00:	e50b0008 	str	r0, [fp, #-8]
    aa04:	e51b0008 	ldr	r0, [fp, #-8]
    aa08:	ebfff9a4 	bl	90a0 <_ZZNK4GPIO12pull_up_downIA28_jEEv10PUD_STATUSRKT_ENKUlvE0_clEv>
    aa0c:	e51b0008 	ldr	r0, [fp, #-8]
    aa10:	eb00000d 	bl	aa4c <_ZN6UnrollILj80EE4callIZNK4GPIO12pull_up_downIA28_jEEv10PUD_STATUSRKT_EUlvE0_EEvS8_>
    aa14:	e320f000 	nop	{0}
    aa18:	e24bd004 	sub	sp, fp, #4
    aa1c:	e8bd8800 	pop	{fp, pc}

0000aa20 <_ZN6UnrollILj80EE4callIZNK4GPIO12pull_up_downIA28_jEEv10PUD_STATUSRKT_EUlvE_EEvS8_>:
    aa20:	e92d4800 	push	{fp, lr}
    aa24:	e28db004 	add	fp, sp, #4
    aa28:	e24dd008 	sub	sp, sp, #8
    aa2c:	e50b0008 	str	r0, [fp, #-8]
    aa30:	e51b0008 	ldr	r0, [fp, #-8]
    aa34:	ebfff98b 	bl	9068 <_ZZNK4GPIO12pull_up_downIA28_jEEv10PUD_STATUSRKT_ENKUlvE_clEv>
    aa38:	e51b0008 	ldr	r0, [fp, #-8]
    aa3c:	eb00000d 	bl	aa78 <_ZN6UnrollILj79EE4callIZNK4GPIO12pull_up_downIA28_jEEv10PUD_STATUSRKT_EUlvE_EEvS8_>
    aa40:	e320f000 	nop	{0}
    aa44:	e24bd004 	sub	sp, fp, #4
    aa48:	e8bd8800 	pop	{fp, pc}

0000aa4c <_ZN6UnrollILj80EE4callIZNK4GPIO12pull_up_downIA28_jEEv10PUD_STATUSRKT_EUlvE0_EEvS8_>:
    aa4c:	e92d4800 	push	{fp, lr}
    aa50:	e28db004 	add	fp, sp, #4
    aa54:	e24dd008 	sub	sp, sp, #8
    aa58:	e50b0008 	str	r0, [fp, #-8]
    aa5c:	e51b0008 	ldr	r0, [fp, #-8]
    aa60:	ebfff98e 	bl	90a0 <_ZZNK4GPIO12pull_up_downIA28_jEEv10PUD_STATUSRKT_ENKUlvE0_clEv>
    aa64:	e51b0008 	ldr	r0, [fp, #-8]
    aa68:	eb00000d 	bl	aaa4 <_ZN6UnrollILj79EE4callIZNK4GPIO12pull_up_downIA28_jEEv10PUD_STATUSRKT_EUlvE0_EEvS8_>
    aa6c:	e320f000 	nop	{0}
    aa70:	e24bd004 	sub	sp, fp, #4
    aa74:	e8bd8800 	pop	{fp, pc}

0000aa78 <_ZN6UnrollILj79EE4callIZNK4GPIO12pull_up_downIA28_jEEv10PUD_STATUSRKT_EUlvE_EEvS8_>:
    aa78:	e92d4800 	push	{fp, lr}
    aa7c:	e28db004 	add	fp, sp, #4
    aa80:	e24dd008 	sub	sp, sp, #8
    aa84:	e50b0008 	str	r0, [fp, #-8]
    aa88:	e51b0008 	ldr	r0, [fp, #-8]
    aa8c:	ebfff975 	bl	9068 <_ZZNK4GPIO12pull_up_downIA28_jEEv10PUD_STATUSRKT_ENKUlvE_clEv>
    aa90:	e51b0008 	ldr	r0, [fp, #-8]
    aa94:	eb00000d 	bl	aad0 <_ZN6UnrollILj78EE4callIZNK4GPIO12pull_up_downIA28_jEEv10PUD_STATUSRKT_EUlvE_EEvS8_>
    aa98:	e320f000 	nop	{0}
    aa9c:	e24bd004 	sub	sp, fp, #4
    aaa0:	e8bd8800 	pop	{fp, pc}

0000aaa4 <_ZN6UnrollILj79EE4callIZNK4GPIO12pull_up_downIA28_jEEv10PUD_STATUSRKT_EUlvE0_EEvS8_>:
    aaa4:	e92d4800 	push	{fp, lr}
    aaa8:	e28db004 	add	fp, sp, #4
    aaac:	e24dd008 	sub	sp, sp, #8
    aab0:	e50b0008 	str	r0, [fp, #-8]
    aab4:	e51b0008 	ldr	r0, [fp, #-8]
    aab8:	ebfff978 	bl	90a0 <_ZZNK4GPIO12pull_up_downIA28_jEEv10PUD_STATUSRKT_ENKUlvE0_clEv>
    aabc:	e51b0008 	ldr	r0, [fp, #-8]
    aac0:	eb00000d 	bl	aafc <_ZN6UnrollILj78EE4callIZNK4GPIO12pull_up_downIA28_jEEv10PUD_STATUSRKT_EUlvE0_EEvS8_>
    aac4:	e320f000 	nop	{0}
    aac8:	e24bd004 	sub	sp, fp, #4
    aacc:	e8bd8800 	pop	{fp, pc}

0000aad0 <_ZN6UnrollILj78EE4callIZNK4GPIO12pull_up_downIA28_jEEv10PUD_STATUSRKT_EUlvE_EEvS8_>:
    aad0:	e92d4800 	push	{fp, lr}
    aad4:	e28db004 	add	fp, sp, #4
    aad8:	e24dd008 	sub	sp, sp, #8
    aadc:	e50b0008 	str	r0, [fp, #-8]
    aae0:	e51b0008 	ldr	r0, [fp, #-8]
    aae4:	ebfff95f 	bl	9068 <_ZZNK4GPIO12pull_up_downIA28_jEEv10PUD_STATUSRKT_ENKUlvE_clEv>
    aae8:	e51b0008 	ldr	r0, [fp, #-8]
    aaec:	eb00000d 	bl	ab28 <_ZN6UnrollILj77EE4callIZNK4GPIO12pull_up_downIA28_jEEv10PUD_STATUSRKT_EUlvE_EEvS8_>
    aaf0:	e320f000 	nop	{0}
    aaf4:	e24bd004 	sub	sp, fp, #4
    aaf8:	e8bd8800 	pop	{fp, pc}

0000aafc <_ZN6UnrollILj78EE4callIZNK4GPIO12pull_up_downIA28_jEEv10PUD_STATUSRKT_EUlvE0_EEvS8_>:
    aafc:	e92d4800 	push	{fp, lr}
    ab00:	e28db004 	add	fp, sp, #4
    ab04:	e24dd008 	sub	sp, sp, #8
    ab08:	e50b0008 	str	r0, [fp, #-8]
    ab0c:	e51b0008 	ldr	r0, [fp, #-8]
    ab10:	ebfff962 	bl	90a0 <_ZZNK4GPIO12pull_up_downIA28_jEEv10PUD_STATUSRKT_ENKUlvE0_clEv>
    ab14:	e51b0008 	ldr	r0, [fp, #-8]
    ab18:	eb00000d 	bl	ab54 <_ZN6UnrollILj77EE4callIZNK4GPIO12pull_up_downIA28_jEEv10PUD_STATUSRKT_EUlvE0_EEvS8_>
    ab1c:	e320f000 	nop	{0}
    ab20:	e24bd004 	sub	sp, fp, #4
    ab24:	e8bd8800 	pop	{fp, pc}

0000ab28 <_ZN6UnrollILj77EE4callIZNK4GPIO12pull_up_downIA28_jEEv10PUD_STATUSRKT_EUlvE_EEvS8_>:
    ab28:	e92d4800 	push	{fp, lr}
    ab2c:	e28db004 	add	fp, sp, #4
    ab30:	e24dd008 	sub	sp, sp, #8
    ab34:	e50b0008 	str	r0, [fp, #-8]
    ab38:	e51b0008 	ldr	r0, [fp, #-8]
    ab3c:	ebfff949 	bl	9068 <_ZZNK4GPIO12pull_up_downIA28_jEEv10PUD_STATUSRKT_ENKUlvE_clEv>
    ab40:	e51b0008 	ldr	r0, [fp, #-8]
    ab44:	eb00000d 	bl	ab80 <_ZN6UnrollILj76EE4callIZNK4GPIO12pull_up_downIA28_jEEv10PUD_STATUSRKT_EUlvE_EEvS8_>
    ab48:	e320f000 	nop	{0}
    ab4c:	e24bd004 	sub	sp, fp, #4
    ab50:	e8bd8800 	pop	{fp, pc}

0000ab54 <_ZN6UnrollILj77EE4callIZNK4GPIO12pull_up_downIA28_jEEv10PUD_STATUSRKT_EUlvE0_EEvS8_>:
    ab54:	e92d4800 	push	{fp, lr}
    ab58:	e28db004 	add	fp, sp, #4
    ab5c:	e24dd008 	sub	sp, sp, #8
    ab60:	e50b0008 	str	r0, [fp, #-8]
    ab64:	e51b0008 	ldr	r0, [fp, #-8]
    ab68:	ebfff94c 	bl	90a0 <_ZZNK4GPIO12pull_up_downIA28_jEEv10PUD_STATUSRKT_ENKUlvE0_clEv>
    ab6c:	e51b0008 	ldr	r0, [fp, #-8]
    ab70:	eb00000d 	bl	abac <_ZN6UnrollILj76EE4callIZNK4GPIO12pull_up_downIA28_jEEv10PUD_STATUSRKT_EUlvE0_EEvS8_>
    ab74:	e320f000 	nop	{0}
    ab78:	e24bd004 	sub	sp, fp, #4
    ab7c:	e8bd8800 	pop	{fp, pc}

0000ab80 <_ZN6UnrollILj76EE4callIZNK4GPIO12pull_up_downIA28_jEEv10PUD_STATUSRKT_EUlvE_EEvS8_>:
    ab80:	e92d4800 	push	{fp, lr}
    ab84:	e28db004 	add	fp, sp, #4
    ab88:	e24dd008 	sub	sp, sp, #8
    ab8c:	e50b0008 	str	r0, [fp, #-8]
    ab90:	e51b0008 	ldr	r0, [fp, #-8]
    ab94:	ebfff933 	bl	9068 <_ZZNK4GPIO12pull_up_downIA28_jEEv10PUD_STATUSRKT_ENKUlvE_clEv>
    ab98:	e51b0008 	ldr	r0, [fp, #-8]
    ab9c:	eb00000d 	bl	abd8 <_ZN6UnrollILj75EE4callIZNK4GPIO12pull_up_downIA28_jEEv10PUD_STATUSRKT_EUlvE_EEvS8_>
    aba0:	e320f000 	nop	{0}
    aba4:	e24bd004 	sub	sp, fp, #4
    aba8:	e8bd8800 	pop	{fp, pc}

0000abac <_ZN6UnrollILj76EE4callIZNK4GPIO12pull_up_downIA28_jEEv10PUD_STATUSRKT_EUlvE0_EEvS8_>:
    abac:	e92d4800 	push	{fp, lr}
    abb0:	e28db004 	add	fp, sp, #4
    abb4:	e24dd008 	sub	sp, sp, #8
    abb8:	e50b0008 	str	r0, [fp, #-8]
    abbc:	e51b0008 	ldr	r0, [fp, #-8]
    abc0:	ebfff936 	bl	90a0 <_ZZNK4GPIO12pull_up_downIA28_jEEv10PUD_STATUSRKT_ENKUlvE0_clEv>
    abc4:	e51b0008 	ldr	r0, [fp, #-8]
    abc8:	eb00000d 	bl	ac04 <_ZN6UnrollILj75EE4callIZNK4GPIO12pull_up_downIA28_jEEv10PUD_STATUSRKT_EUlvE0_EEvS8_>
    abcc:	e320f000 	nop	{0}
    abd0:	e24bd004 	sub	sp, fp, #4
    abd4:	e8bd8800 	pop	{fp, pc}

0000abd8 <_ZN6UnrollILj75EE4callIZNK4GPIO12pull_up_downIA28_jEEv10PUD_STATUSRKT_EUlvE_EEvS8_>:
    abd8:	e92d4800 	push	{fp, lr}
    abdc:	e28db004 	add	fp, sp, #4
    abe0:	e24dd008 	sub	sp, sp, #8
    abe4:	e50b0008 	str	r0, [fp, #-8]
    abe8:	e51b0008 	ldr	r0, [fp, #-8]
    abec:	ebfff91d 	bl	9068 <_ZZNK4GPIO12pull_up_downIA28_jEEv10PUD_STATUSRKT_ENKUlvE_clEv>
    abf0:	e51b0008 	ldr	r0, [fp, #-8]
    abf4:	eb00000d 	bl	ac30 <_ZN6UnrollILj74EE4callIZNK4GPIO12pull_up_downIA28_jEEv10PUD_STATUSRKT_EUlvE_EEvS8_>
    abf8:	e320f000 	nop	{0}
    abfc:	e24bd004 	sub	sp, fp, #4
    ac00:	e8bd8800 	pop	{fp, pc}

0000ac04 <_ZN6UnrollILj75EE4callIZNK4GPIO12pull_up_downIA28_jEEv10PUD_STATUSRKT_EUlvE0_EEvS8_>:
    ac04:	e92d4800 	push	{fp, lr}
    ac08:	e28db004 	add	fp, sp, #4
    ac0c:	e24dd008 	sub	sp, sp, #8
    ac10:	e50b0008 	str	r0, [fp, #-8]
    ac14:	e51b0008 	ldr	r0, [fp, #-8]
    ac18:	ebfff920 	bl	90a0 <_ZZNK4GPIO12pull_up_downIA28_jEEv10PUD_STATUSRKT_ENKUlvE0_clEv>
    ac1c:	e51b0008 	ldr	r0, [fp, #-8]
    ac20:	eb00000d 	bl	ac5c <_ZN6UnrollILj74EE4callIZNK4GPIO12pull_up_downIA28_jEEv10PUD_STATUSRKT_EUlvE0_EEvS8_>
    ac24:	e320f000 	nop	{0}
    ac28:	e24bd004 	sub	sp, fp, #4
    ac2c:	e8bd8800 	pop	{fp, pc}

0000ac30 <_ZN6UnrollILj74EE4callIZNK4GPIO12pull_up_downIA28_jEEv10PUD_STATUSRKT_EUlvE_EEvS8_>:
    ac30:	e92d4800 	push	{fp, lr}
    ac34:	e28db004 	add	fp, sp, #4
    ac38:	e24dd008 	sub	sp, sp, #8
    ac3c:	e50b0008 	str	r0, [fp, #-8]
    ac40:	e51b0008 	ldr	r0, [fp, #-8]
    ac44:	ebfff907 	bl	9068 <_ZZNK4GPIO12pull_up_downIA28_jEEv10PUD_STATUSRKT_ENKUlvE_clEv>
    ac48:	e51b0008 	ldr	r0, [fp, #-8]
    ac4c:	eb00000d 	bl	ac88 <_ZN6UnrollILj73EE4callIZNK4GPIO12pull_up_downIA28_jEEv10PUD_STATUSRKT_EUlvE_EEvS8_>
    ac50:	e320f000 	nop	{0}
    ac54:	e24bd004 	sub	sp, fp, #4
    ac58:	e8bd8800 	pop	{fp, pc}

0000ac5c <_ZN6UnrollILj74EE4callIZNK4GPIO12pull_up_downIA28_jEEv10PUD_STATUSRKT_EUlvE0_EEvS8_>:
    ac5c:	e92d4800 	push	{fp, lr}
    ac60:	e28db004 	add	fp, sp, #4
    ac64:	e24dd008 	sub	sp, sp, #8
    ac68:	e50b0008 	str	r0, [fp, #-8]
    ac6c:	e51b0008 	ldr	r0, [fp, #-8]
    ac70:	ebfff90a 	bl	90a0 <_ZZNK4GPIO12pull_up_downIA28_jEEv10PUD_STATUSRKT_ENKUlvE0_clEv>
    ac74:	e51b0008 	ldr	r0, [fp, #-8]
    ac78:	eb00000d 	bl	acb4 <_ZN6UnrollILj73EE4callIZNK4GPIO12pull_up_downIA28_jEEv10PUD_STATUSRKT_EUlvE0_EEvS8_>
    ac7c:	e320f000 	nop	{0}
    ac80:	e24bd004 	sub	sp, fp, #4
    ac84:	e8bd8800 	pop	{fp, pc}

0000ac88 <_ZN6UnrollILj73EE4callIZNK4GPIO12pull_up_downIA28_jEEv10PUD_STATUSRKT_EUlvE_EEvS8_>:
    ac88:	e92d4800 	push	{fp, lr}
    ac8c:	e28db004 	add	fp, sp, #4
    ac90:	e24dd008 	sub	sp, sp, #8
    ac94:	e50b0008 	str	r0, [fp, #-8]
    ac98:	e51b0008 	ldr	r0, [fp, #-8]
    ac9c:	ebfff8f1 	bl	9068 <_ZZNK4GPIO12pull_up_downIA28_jEEv10PUD_STATUSRKT_ENKUlvE_clEv>
    aca0:	e51b0008 	ldr	r0, [fp, #-8]
    aca4:	eb00000d 	bl	ace0 <_ZN6UnrollILj72EE4callIZNK4GPIO12pull_up_downIA28_jEEv10PUD_STATUSRKT_EUlvE_EEvS8_>
    aca8:	e320f000 	nop	{0}
    acac:	e24bd004 	sub	sp, fp, #4
    acb0:	e8bd8800 	pop	{fp, pc}

0000acb4 <_ZN6UnrollILj73EE4callIZNK4GPIO12pull_up_downIA28_jEEv10PUD_STATUSRKT_EUlvE0_EEvS8_>:
    acb4:	e92d4800 	push	{fp, lr}
    acb8:	e28db004 	add	fp, sp, #4
    acbc:	e24dd008 	sub	sp, sp, #8
    acc0:	e50b0008 	str	r0, [fp, #-8]
    acc4:	e51b0008 	ldr	r0, [fp, #-8]
    acc8:	ebfff8f4 	bl	90a0 <_ZZNK4GPIO12pull_up_downIA28_jEEv10PUD_STATUSRKT_ENKUlvE0_clEv>
    accc:	e51b0008 	ldr	r0, [fp, #-8]
    acd0:	eb00000d 	bl	ad0c <_ZN6UnrollILj72EE4callIZNK4GPIO12pull_up_downIA28_jEEv10PUD_STATUSRKT_EUlvE0_EEvS8_>
    acd4:	e320f000 	nop	{0}
    acd8:	e24bd004 	sub	sp, fp, #4
    acdc:	e8bd8800 	pop	{fp, pc}

0000ace0 <_ZN6UnrollILj72EE4callIZNK4GPIO12pull_up_downIA28_jEEv10PUD_STATUSRKT_EUlvE_EEvS8_>:
    ace0:	e92d4800 	push	{fp, lr}
    ace4:	e28db004 	add	fp, sp, #4
    ace8:	e24dd008 	sub	sp, sp, #8
    acec:	e50b0008 	str	r0, [fp, #-8]
    acf0:	e51b0008 	ldr	r0, [fp, #-8]
    acf4:	ebfff8db 	bl	9068 <_ZZNK4GPIO12pull_up_downIA28_jEEv10PUD_STATUSRKT_ENKUlvE_clEv>
    acf8:	e51b0008 	ldr	r0, [fp, #-8]
    acfc:	eb00000d 	bl	ad38 <_ZN6UnrollILj71EE4callIZNK4GPIO12pull_up_downIA28_jEEv10PUD_STATUSRKT_EUlvE_EEvS8_>
    ad00:	e320f000 	nop	{0}
    ad04:	e24bd004 	sub	sp, fp, #4
    ad08:	e8bd8800 	pop	{fp, pc}

0000ad0c <_ZN6UnrollILj72EE4callIZNK4GPIO12pull_up_downIA28_jEEv10PUD_STATUSRKT_EUlvE0_EEvS8_>:
    ad0c:	e92d4800 	push	{fp, lr}
    ad10:	e28db004 	add	fp, sp, #4
    ad14:	e24dd008 	sub	sp, sp, #8
    ad18:	e50b0008 	str	r0, [fp, #-8]
    ad1c:	e51b0008 	ldr	r0, [fp, #-8]
    ad20:	ebfff8de 	bl	90a0 <_ZZNK4GPIO12pull_up_downIA28_jEEv10PUD_STATUSRKT_ENKUlvE0_clEv>
    ad24:	e51b0008 	ldr	r0, [fp, #-8]
    ad28:	eb00000d 	bl	ad64 <_ZN6UnrollILj71EE4callIZNK4GPIO12pull_up_downIA28_jEEv10PUD_STATUSRKT_EUlvE0_EEvS8_>
    ad2c:	e320f000 	nop	{0}
    ad30:	e24bd004 	sub	sp, fp, #4
    ad34:	e8bd8800 	pop	{fp, pc}

0000ad38 <_ZN6UnrollILj71EE4callIZNK4GPIO12pull_up_downIA28_jEEv10PUD_STATUSRKT_EUlvE_EEvS8_>:
    ad38:	e92d4800 	push	{fp, lr}
    ad3c:	e28db004 	add	fp, sp, #4
    ad40:	e24dd008 	sub	sp, sp, #8
    ad44:	e50b0008 	str	r0, [fp, #-8]
    ad48:	e51b0008 	ldr	r0, [fp, #-8]
    ad4c:	ebfff8c5 	bl	9068 <_ZZNK4GPIO12pull_up_downIA28_jEEv10PUD_STATUSRKT_ENKUlvE_clEv>
    ad50:	e51b0008 	ldr	r0, [fp, #-8]
    ad54:	eb00000d 	bl	ad90 <_ZN6UnrollILj70EE4callIZNK4GPIO12pull_up_downIA28_jEEv10PUD_STATUSRKT_EUlvE_EEvS8_>
    ad58:	e320f000 	nop	{0}
    ad5c:	e24bd004 	sub	sp, fp, #4
    ad60:	e8bd8800 	pop	{fp, pc}

0000ad64 <_ZN6UnrollILj71EE4callIZNK4GPIO12pull_up_downIA28_jEEv10PUD_STATUSRKT_EUlvE0_EEvS8_>:
    ad64:	e92d4800 	push	{fp, lr}
    ad68:	e28db004 	add	fp, sp, #4
    ad6c:	e24dd008 	sub	sp, sp, #8
    ad70:	e50b0008 	str	r0, [fp, #-8]
    ad74:	e51b0008 	ldr	r0, [fp, #-8]
    ad78:	ebfff8c8 	bl	90a0 <_ZZNK4GPIO12pull_up_downIA28_jEEv10PUD_STATUSRKT_ENKUlvE0_clEv>
    ad7c:	e51b0008 	ldr	r0, [fp, #-8]
    ad80:	eb00000d 	bl	adbc <_ZN6UnrollILj70EE4callIZNK4GPIO12pull_up_downIA28_jEEv10PUD_STATUSRKT_EUlvE0_EEvS8_>
    ad84:	e320f000 	nop	{0}
    ad88:	e24bd004 	sub	sp, fp, #4
    ad8c:	e8bd8800 	pop	{fp, pc}

0000ad90 <_ZN6UnrollILj70EE4callIZNK4GPIO12pull_up_downIA28_jEEv10PUD_STATUSRKT_EUlvE_EEvS8_>:
    ad90:	e92d4800 	push	{fp, lr}
    ad94:	e28db004 	add	fp, sp, #4
    ad98:	e24dd008 	sub	sp, sp, #8
    ad9c:	e50b0008 	str	r0, [fp, #-8]
    ada0:	e51b0008 	ldr	r0, [fp, #-8]
    ada4:	ebfff8af 	bl	9068 <_ZZNK4GPIO12pull_up_downIA28_jEEv10PUD_STATUSRKT_ENKUlvE_clEv>
    ada8:	e51b0008 	ldr	r0, [fp, #-8]
    adac:	eb00000d 	bl	ade8 <_ZN6UnrollILj69EE4callIZNK4GPIO12pull_up_downIA28_jEEv10PUD_STATUSRKT_EUlvE_EEvS8_>
    adb0:	e320f000 	nop	{0}
    adb4:	e24bd004 	sub	sp, fp, #4
    adb8:	e8bd8800 	pop	{fp, pc}

0000adbc <_ZN6UnrollILj70EE4callIZNK4GPIO12pull_up_downIA28_jEEv10PUD_STATUSRKT_EUlvE0_EEvS8_>:
    adbc:	e92d4800 	push	{fp, lr}
    adc0:	e28db004 	add	fp, sp, #4
    adc4:	e24dd008 	sub	sp, sp, #8
    adc8:	e50b0008 	str	r0, [fp, #-8]
    adcc:	e51b0008 	ldr	r0, [fp, #-8]
    add0:	ebfff8b2 	bl	90a0 <_ZZNK4GPIO12pull_up_downIA28_jEEv10PUD_STATUSRKT_ENKUlvE0_clEv>
    add4:	e51b0008 	ldr	r0, [fp, #-8]
    add8:	eb00000d 	bl	ae14 <_ZN6UnrollILj69EE4callIZNK4GPIO12pull_up_downIA28_jEEv10PUD_STATUSRKT_EUlvE0_EEvS8_>
    addc:	e320f000 	nop	{0}
    ade0:	e24bd004 	sub	sp, fp, #4
    ade4:	e8bd8800 	pop	{fp, pc}

0000ade8 <_ZN6UnrollILj69EE4callIZNK4GPIO12pull_up_downIA28_jEEv10PUD_STATUSRKT_EUlvE_EEvS8_>:
    ade8:	e92d4800 	push	{fp, lr}
    adec:	e28db004 	add	fp, sp, #4
    adf0:	e24dd008 	sub	sp, sp, #8
    adf4:	e50b0008 	str	r0, [fp, #-8]
    adf8:	e51b0008 	ldr	r0, [fp, #-8]
    adfc:	ebfff899 	bl	9068 <_ZZNK4GPIO12pull_up_downIA28_jEEv10PUD_STATUSRKT_ENKUlvE_clEv>
    ae00:	e51b0008 	ldr	r0, [fp, #-8]
    ae04:	eb00000d 	bl	ae40 <_ZN6UnrollILj68EE4callIZNK4GPIO12pull_up_downIA28_jEEv10PUD_STATUSRKT_EUlvE_EEvS8_>
    ae08:	e320f000 	nop	{0}
    ae0c:	e24bd004 	sub	sp, fp, #4
    ae10:	e8bd8800 	pop	{fp, pc}

0000ae14 <_ZN6UnrollILj69EE4callIZNK4GPIO12pull_up_downIA28_jEEv10PUD_STATUSRKT_EUlvE0_EEvS8_>:
    ae14:	e92d4800 	push	{fp, lr}
    ae18:	e28db004 	add	fp, sp, #4
    ae1c:	e24dd008 	sub	sp, sp, #8
    ae20:	e50b0008 	str	r0, [fp, #-8]
    ae24:	e51b0008 	ldr	r0, [fp, #-8]
    ae28:	ebfff89c 	bl	90a0 <_ZZNK4GPIO12pull_up_downIA28_jEEv10PUD_STATUSRKT_ENKUlvE0_clEv>
    ae2c:	e51b0008 	ldr	r0, [fp, #-8]
    ae30:	eb00000d 	bl	ae6c <_ZN6UnrollILj68EE4callIZNK4GPIO12pull_up_downIA28_jEEv10PUD_STATUSRKT_EUlvE0_EEvS8_>
    ae34:	e320f000 	nop	{0}
    ae38:	e24bd004 	sub	sp, fp, #4
    ae3c:	e8bd8800 	pop	{fp, pc}

0000ae40 <_ZN6UnrollILj68EE4callIZNK4GPIO12pull_up_downIA28_jEEv10PUD_STATUSRKT_EUlvE_EEvS8_>:
    ae40:	e92d4800 	push	{fp, lr}
    ae44:	e28db004 	add	fp, sp, #4
    ae48:	e24dd008 	sub	sp, sp, #8
    ae4c:	e50b0008 	str	r0, [fp, #-8]
    ae50:	e51b0008 	ldr	r0, [fp, #-8]
    ae54:	ebfff883 	bl	9068 <_ZZNK4GPIO12pull_up_downIA28_jEEv10PUD_STATUSRKT_ENKUlvE_clEv>
    ae58:	e51b0008 	ldr	r0, [fp, #-8]
    ae5c:	eb00000d 	bl	ae98 <_ZN6UnrollILj67EE4callIZNK4GPIO12pull_up_downIA28_jEEv10PUD_STATUSRKT_EUlvE_EEvS8_>
    ae60:	e320f000 	nop	{0}
    ae64:	e24bd004 	sub	sp, fp, #4
    ae68:	e8bd8800 	pop	{fp, pc}

0000ae6c <_ZN6UnrollILj68EE4callIZNK4GPIO12pull_up_downIA28_jEEv10PUD_STATUSRKT_EUlvE0_EEvS8_>:
    ae6c:	e92d4800 	push	{fp, lr}
    ae70:	e28db004 	add	fp, sp, #4
    ae74:	e24dd008 	sub	sp, sp, #8
    ae78:	e50b0008 	str	r0, [fp, #-8]
    ae7c:	e51b0008 	ldr	r0, [fp, #-8]
    ae80:	ebfff886 	bl	90a0 <_ZZNK4GPIO12pull_up_downIA28_jEEv10PUD_STATUSRKT_ENKUlvE0_clEv>
    ae84:	e51b0008 	ldr	r0, [fp, #-8]
    ae88:	eb00000d 	bl	aec4 <_ZN6UnrollILj67EE4callIZNK4GPIO12pull_up_downIA28_jEEv10PUD_STATUSRKT_EUlvE0_EEvS8_>
    ae8c:	e320f000 	nop	{0}
    ae90:	e24bd004 	sub	sp, fp, #4
    ae94:	e8bd8800 	pop	{fp, pc}

0000ae98 <_ZN6UnrollILj67EE4callIZNK4GPIO12pull_up_downIA28_jEEv10PUD_STATUSRKT_EUlvE_EEvS8_>:
    ae98:	e92d4800 	push	{fp, lr}
    ae9c:	e28db004 	add	fp, sp, #4
    aea0:	e24dd008 	sub	sp, sp, #8
    aea4:	e50b0008 	str	r0, [fp, #-8]
    aea8:	e51b0008 	ldr	r0, [fp, #-8]
    aeac:	ebfff86d 	bl	9068 <_ZZNK4GPIO12pull_up_downIA28_jEEv10PUD_STATUSRKT_ENKUlvE_clEv>
    aeb0:	e51b0008 	ldr	r0, [fp, #-8]
    aeb4:	eb00000d 	bl	aef0 <_ZN6UnrollILj66EE4callIZNK4GPIO12pull_up_downIA28_jEEv10PUD_STATUSRKT_EUlvE_EEvS8_>
    aeb8:	e320f000 	nop	{0}
    aebc:	e24bd004 	sub	sp, fp, #4
    aec0:	e8bd8800 	pop	{fp, pc}

0000aec4 <_ZN6UnrollILj67EE4callIZNK4GPIO12pull_up_downIA28_jEEv10PUD_STATUSRKT_EUlvE0_EEvS8_>:
    aec4:	e92d4800 	push	{fp, lr}
    aec8:	e28db004 	add	fp, sp, #4
    aecc:	e24dd008 	sub	sp, sp, #8
    aed0:	e50b0008 	str	r0, [fp, #-8]
    aed4:	e51b0008 	ldr	r0, [fp, #-8]
    aed8:	ebfff870 	bl	90a0 <_ZZNK4GPIO12pull_up_downIA28_jEEv10PUD_STATUSRKT_ENKUlvE0_clEv>
    aedc:	e51b0008 	ldr	r0, [fp, #-8]
    aee0:	eb00000d 	bl	af1c <_ZN6UnrollILj66EE4callIZNK4GPIO12pull_up_downIA28_jEEv10PUD_STATUSRKT_EUlvE0_EEvS8_>
    aee4:	e320f000 	nop	{0}
    aee8:	e24bd004 	sub	sp, fp, #4
    aeec:	e8bd8800 	pop	{fp, pc}

0000aef0 <_ZN6UnrollILj66EE4callIZNK4GPIO12pull_up_downIA28_jEEv10PUD_STATUSRKT_EUlvE_EEvS8_>:
    aef0:	e92d4800 	push	{fp, lr}
    aef4:	e28db004 	add	fp, sp, #4
    aef8:	e24dd008 	sub	sp, sp, #8
    aefc:	e50b0008 	str	r0, [fp, #-8]
    af00:	e51b0008 	ldr	r0, [fp, #-8]
    af04:	ebfff857 	bl	9068 <_ZZNK4GPIO12pull_up_downIA28_jEEv10PUD_STATUSRKT_ENKUlvE_clEv>
    af08:	e51b0008 	ldr	r0, [fp, #-8]
    af0c:	eb00000d 	bl	af48 <_ZN6UnrollILj65EE4callIZNK4GPIO12pull_up_downIA28_jEEv10PUD_STATUSRKT_EUlvE_EEvS8_>
    af10:	e320f000 	nop	{0}
    af14:	e24bd004 	sub	sp, fp, #4
    af18:	e8bd8800 	pop	{fp, pc}

0000af1c <_ZN6UnrollILj66EE4callIZNK4GPIO12pull_up_downIA28_jEEv10PUD_STATUSRKT_EUlvE0_EEvS8_>:
    af1c:	e92d4800 	push	{fp, lr}
    af20:	e28db004 	add	fp, sp, #4
    af24:	e24dd008 	sub	sp, sp, #8
    af28:	e50b0008 	str	r0, [fp, #-8]
    af2c:	e51b0008 	ldr	r0, [fp, #-8]
    af30:	ebfff85a 	bl	90a0 <_ZZNK4GPIO12pull_up_downIA28_jEEv10PUD_STATUSRKT_ENKUlvE0_clEv>
    af34:	e51b0008 	ldr	r0, [fp, #-8]
    af38:	eb00000d 	bl	af74 <_ZN6UnrollILj65EE4callIZNK4GPIO12pull_up_downIA28_jEEv10PUD_STATUSRKT_EUlvE0_EEvS8_>
    af3c:	e320f000 	nop	{0}
    af40:	e24bd004 	sub	sp, fp, #4
    af44:	e8bd8800 	pop	{fp, pc}

0000af48 <_ZN6UnrollILj65EE4callIZNK4GPIO12pull_up_downIA28_jEEv10PUD_STATUSRKT_EUlvE_EEvS8_>:
    af48:	e92d4800 	push	{fp, lr}
    af4c:	e28db004 	add	fp, sp, #4
    af50:	e24dd008 	sub	sp, sp, #8
    af54:	e50b0008 	str	r0, [fp, #-8]
    af58:	e51b0008 	ldr	r0, [fp, #-8]
    af5c:	ebfff841 	bl	9068 <_ZZNK4GPIO12pull_up_downIA28_jEEv10PUD_STATUSRKT_ENKUlvE_clEv>
    af60:	e51b0008 	ldr	r0, [fp, #-8]
    af64:	eb00000d 	bl	afa0 <_ZN6UnrollILj64EE4callIZNK4GPIO12pull_up_downIA28_jEEv10PUD_STATUSRKT_EUlvE_EEvS8_>
    af68:	e320f000 	nop	{0}
    af6c:	e24bd004 	sub	sp, fp, #4
    af70:	e8bd8800 	pop	{fp, pc}

0000af74 <_ZN6UnrollILj65EE4callIZNK4GPIO12pull_up_downIA28_jEEv10PUD_STATUSRKT_EUlvE0_EEvS8_>:
    af74:	e92d4800 	push	{fp, lr}
    af78:	e28db004 	add	fp, sp, #4
    af7c:	e24dd008 	sub	sp, sp, #8
    af80:	e50b0008 	str	r0, [fp, #-8]
    af84:	e51b0008 	ldr	r0, [fp, #-8]
    af88:	ebfff844 	bl	90a0 <_ZZNK4GPIO12pull_up_downIA28_jEEv10PUD_STATUSRKT_ENKUlvE0_clEv>
    af8c:	e51b0008 	ldr	r0, [fp, #-8]
    af90:	eb00000d 	bl	afcc <_ZN6UnrollILj64EE4callIZNK4GPIO12pull_up_downIA28_jEEv10PUD_STATUSRKT_EUlvE0_EEvS8_>
    af94:	e320f000 	nop	{0}
    af98:	e24bd004 	sub	sp, fp, #4
    af9c:	e8bd8800 	pop	{fp, pc}

0000afa0 <_ZN6UnrollILj64EE4callIZNK4GPIO12pull_up_downIA28_jEEv10PUD_STATUSRKT_EUlvE_EEvS8_>:
    afa0:	e92d4800 	push	{fp, lr}
    afa4:	e28db004 	add	fp, sp, #4
    afa8:	e24dd008 	sub	sp, sp, #8
    afac:	e50b0008 	str	r0, [fp, #-8]
    afb0:	e51b0008 	ldr	r0, [fp, #-8]
    afb4:	ebfff82b 	bl	9068 <_ZZNK4GPIO12pull_up_downIA28_jEEv10PUD_STATUSRKT_ENKUlvE_clEv>
    afb8:	e51b0008 	ldr	r0, [fp, #-8]
    afbc:	eb00000d 	bl	aff8 <_ZN6UnrollILj63EE4callIZNK4GPIO12pull_up_downIA28_jEEv10PUD_STATUSRKT_EUlvE_EEvS8_>
    afc0:	e320f000 	nop	{0}
    afc4:	e24bd004 	sub	sp, fp, #4
    afc8:	e8bd8800 	pop	{fp, pc}

0000afcc <_ZN6UnrollILj64EE4callIZNK4GPIO12pull_up_downIA28_jEEv10PUD_STATUSRKT_EUlvE0_EEvS8_>:
    afcc:	e92d4800 	push	{fp, lr}
    afd0:	e28db004 	add	fp, sp, #4
    afd4:	e24dd008 	sub	sp, sp, #8
    afd8:	e50b0008 	str	r0, [fp, #-8]
    afdc:	e51b0008 	ldr	r0, [fp, #-8]
    afe0:	ebfff82e 	bl	90a0 <_ZZNK4GPIO12pull_up_downIA28_jEEv10PUD_STATUSRKT_ENKUlvE0_clEv>
    afe4:	e51b0008 	ldr	r0, [fp, #-8]
    afe8:	eb00000d 	bl	b024 <_ZN6UnrollILj63EE4callIZNK4GPIO12pull_up_downIA28_jEEv10PUD_STATUSRKT_EUlvE0_EEvS8_>
    afec:	e320f000 	nop	{0}
    aff0:	e24bd004 	sub	sp, fp, #4
    aff4:	e8bd8800 	pop	{fp, pc}

0000aff8 <_ZN6UnrollILj63EE4callIZNK4GPIO12pull_up_downIA28_jEEv10PUD_STATUSRKT_EUlvE_EEvS8_>:
    aff8:	e92d4800 	push	{fp, lr}
    affc:	e28db004 	add	fp, sp, #4
    b000:	e24dd008 	sub	sp, sp, #8
    b004:	e50b0008 	str	r0, [fp, #-8]
    b008:	e51b0008 	ldr	r0, [fp, #-8]
    b00c:	ebfff815 	bl	9068 <_ZZNK4GPIO12pull_up_downIA28_jEEv10PUD_STATUSRKT_ENKUlvE_clEv>
    b010:	e51b0008 	ldr	r0, [fp, #-8]
    b014:	eb00000d 	bl	b050 <_ZN6UnrollILj62EE4callIZNK4GPIO12pull_up_downIA28_jEEv10PUD_STATUSRKT_EUlvE_EEvS8_>
    b018:	e320f000 	nop	{0}
    b01c:	e24bd004 	sub	sp, fp, #4
    b020:	e8bd8800 	pop	{fp, pc}

0000b024 <_ZN6UnrollILj63EE4callIZNK4GPIO12pull_up_downIA28_jEEv10PUD_STATUSRKT_EUlvE0_EEvS8_>:
    b024:	e92d4800 	push	{fp, lr}
    b028:	e28db004 	add	fp, sp, #4
    b02c:	e24dd008 	sub	sp, sp, #8
    b030:	e50b0008 	str	r0, [fp, #-8]
    b034:	e51b0008 	ldr	r0, [fp, #-8]
    b038:	ebfff818 	bl	90a0 <_ZZNK4GPIO12pull_up_downIA28_jEEv10PUD_STATUSRKT_ENKUlvE0_clEv>
    b03c:	e51b0008 	ldr	r0, [fp, #-8]
    b040:	eb00000d 	bl	b07c <_ZN6UnrollILj62EE4callIZNK4GPIO12pull_up_downIA28_jEEv10PUD_STATUSRKT_EUlvE0_EEvS8_>
    b044:	e320f000 	nop	{0}
    b048:	e24bd004 	sub	sp, fp, #4
    b04c:	e8bd8800 	pop	{fp, pc}

0000b050 <_ZN6UnrollILj62EE4callIZNK4GPIO12pull_up_downIA28_jEEv10PUD_STATUSRKT_EUlvE_EEvS8_>:
    b050:	e92d4800 	push	{fp, lr}
    b054:	e28db004 	add	fp, sp, #4
    b058:	e24dd008 	sub	sp, sp, #8
    b05c:	e50b0008 	str	r0, [fp, #-8]
    b060:	e51b0008 	ldr	r0, [fp, #-8]
    b064:	ebfff7ff 	bl	9068 <_ZZNK4GPIO12pull_up_downIA28_jEEv10PUD_STATUSRKT_ENKUlvE_clEv>
    b068:	e51b0008 	ldr	r0, [fp, #-8]
    b06c:	eb00000d 	bl	b0a8 <_ZN6UnrollILj61EE4callIZNK4GPIO12pull_up_downIA28_jEEv10PUD_STATUSRKT_EUlvE_EEvS8_>
    b070:	e320f000 	nop	{0}
    b074:	e24bd004 	sub	sp, fp, #4
    b078:	e8bd8800 	pop	{fp, pc}

0000b07c <_ZN6UnrollILj62EE4callIZNK4GPIO12pull_up_downIA28_jEEv10PUD_STATUSRKT_EUlvE0_EEvS8_>:
    b07c:	e92d4800 	push	{fp, lr}
    b080:	e28db004 	add	fp, sp, #4
    b084:	e24dd008 	sub	sp, sp, #8
    b088:	e50b0008 	str	r0, [fp, #-8]
    b08c:	e51b0008 	ldr	r0, [fp, #-8]
    b090:	ebfff802 	bl	90a0 <_ZZNK4GPIO12pull_up_downIA28_jEEv10PUD_STATUSRKT_ENKUlvE0_clEv>
    b094:	e51b0008 	ldr	r0, [fp, #-8]
    b098:	eb00000d 	bl	b0d4 <_ZN6UnrollILj61EE4callIZNK4GPIO12pull_up_downIA28_jEEv10PUD_STATUSRKT_EUlvE0_EEvS8_>
    b09c:	e320f000 	nop	{0}
    b0a0:	e24bd004 	sub	sp, fp, #4
    b0a4:	e8bd8800 	pop	{fp, pc}

0000b0a8 <_ZN6UnrollILj61EE4callIZNK4GPIO12pull_up_downIA28_jEEv10PUD_STATUSRKT_EUlvE_EEvS8_>:
    b0a8:	e92d4800 	push	{fp, lr}
    b0ac:	e28db004 	add	fp, sp, #4
    b0b0:	e24dd008 	sub	sp, sp, #8
    b0b4:	e50b0008 	str	r0, [fp, #-8]
    b0b8:	e51b0008 	ldr	r0, [fp, #-8]
    b0bc:	ebfff7e9 	bl	9068 <_ZZNK4GPIO12pull_up_downIA28_jEEv10PUD_STATUSRKT_ENKUlvE_clEv>
    b0c0:	e51b0008 	ldr	r0, [fp, #-8]
    b0c4:	eb00000d 	bl	b100 <_ZN6UnrollILj60EE4callIZNK4GPIO12pull_up_downIA28_jEEv10PUD_STATUSRKT_EUlvE_EEvS8_>
    b0c8:	e320f000 	nop	{0}
    b0cc:	e24bd004 	sub	sp, fp, #4
    b0d0:	e8bd8800 	pop	{fp, pc}

0000b0d4 <_ZN6UnrollILj61EE4callIZNK4GPIO12pull_up_downIA28_jEEv10PUD_STATUSRKT_EUlvE0_EEvS8_>:
    b0d4:	e92d4800 	push	{fp, lr}
    b0d8:	e28db004 	add	fp, sp, #4
    b0dc:	e24dd008 	sub	sp, sp, #8
    b0e0:	e50b0008 	str	r0, [fp, #-8]
    b0e4:	e51b0008 	ldr	r0, [fp, #-8]
    b0e8:	ebfff7ec 	bl	90a0 <_ZZNK4GPIO12pull_up_downIA28_jEEv10PUD_STATUSRKT_ENKUlvE0_clEv>
    b0ec:	e51b0008 	ldr	r0, [fp, #-8]
    b0f0:	eb00000d 	bl	b12c <_ZN6UnrollILj60EE4callIZNK4GPIO12pull_up_downIA28_jEEv10PUD_STATUSRKT_EUlvE0_EEvS8_>
    b0f4:	e320f000 	nop	{0}
    b0f8:	e24bd004 	sub	sp, fp, #4
    b0fc:	e8bd8800 	pop	{fp, pc}

0000b100 <_ZN6UnrollILj60EE4callIZNK4GPIO12pull_up_downIA28_jEEv10PUD_STATUSRKT_EUlvE_EEvS8_>:
    b100:	e92d4800 	push	{fp, lr}
    b104:	e28db004 	add	fp, sp, #4
    b108:	e24dd008 	sub	sp, sp, #8
    b10c:	e50b0008 	str	r0, [fp, #-8]
    b110:	e51b0008 	ldr	r0, [fp, #-8]
    b114:	ebfff7d3 	bl	9068 <_ZZNK4GPIO12pull_up_downIA28_jEEv10PUD_STATUSRKT_ENKUlvE_clEv>
    b118:	e51b0008 	ldr	r0, [fp, #-8]
    b11c:	eb00000d 	bl	b158 <_ZN6UnrollILj59EE4callIZNK4GPIO12pull_up_downIA28_jEEv10PUD_STATUSRKT_EUlvE_EEvS8_>
    b120:	e320f000 	nop	{0}
    b124:	e24bd004 	sub	sp, fp, #4
    b128:	e8bd8800 	pop	{fp, pc}

0000b12c <_ZN6UnrollILj60EE4callIZNK4GPIO12pull_up_downIA28_jEEv10PUD_STATUSRKT_EUlvE0_EEvS8_>:
    b12c:	e92d4800 	push	{fp, lr}
    b130:	e28db004 	add	fp, sp, #4
    b134:	e24dd008 	sub	sp, sp, #8
    b138:	e50b0008 	str	r0, [fp, #-8]
    b13c:	e51b0008 	ldr	r0, [fp, #-8]
    b140:	ebfff7d6 	bl	90a0 <_ZZNK4GPIO12pull_up_downIA28_jEEv10PUD_STATUSRKT_ENKUlvE0_clEv>
    b144:	e51b0008 	ldr	r0, [fp, #-8]
    b148:	eb00000d 	bl	b184 <_ZN6UnrollILj59EE4callIZNK4GPIO12pull_up_downIA28_jEEv10PUD_STATUSRKT_EUlvE0_EEvS8_>
    b14c:	e320f000 	nop	{0}
    b150:	e24bd004 	sub	sp, fp, #4
    b154:	e8bd8800 	pop	{fp, pc}

0000b158 <_ZN6UnrollILj59EE4callIZNK4GPIO12pull_up_downIA28_jEEv10PUD_STATUSRKT_EUlvE_EEvS8_>:
    b158:	e92d4800 	push	{fp, lr}
    b15c:	e28db004 	add	fp, sp, #4
    b160:	e24dd008 	sub	sp, sp, #8
    b164:	e50b0008 	str	r0, [fp, #-8]
    b168:	e51b0008 	ldr	r0, [fp, #-8]
    b16c:	ebfff7bd 	bl	9068 <_ZZNK4GPIO12pull_up_downIA28_jEEv10PUD_STATUSRKT_ENKUlvE_clEv>
    b170:	e51b0008 	ldr	r0, [fp, #-8]
    b174:	eb00000d 	bl	b1b0 <_ZN6UnrollILj58EE4callIZNK4GPIO12pull_up_downIA28_jEEv10PUD_STATUSRKT_EUlvE_EEvS8_>
    b178:	e320f000 	nop	{0}
    b17c:	e24bd004 	sub	sp, fp, #4
    b180:	e8bd8800 	pop	{fp, pc}

0000b184 <_ZN6UnrollILj59EE4callIZNK4GPIO12pull_up_downIA28_jEEv10PUD_STATUSRKT_EUlvE0_EEvS8_>:
    b184:	e92d4800 	push	{fp, lr}
    b188:	e28db004 	add	fp, sp, #4
    b18c:	e24dd008 	sub	sp, sp, #8
    b190:	e50b0008 	str	r0, [fp, #-8]
    b194:	e51b0008 	ldr	r0, [fp, #-8]
    b198:	ebfff7c0 	bl	90a0 <_ZZNK4GPIO12pull_up_downIA28_jEEv10PUD_STATUSRKT_ENKUlvE0_clEv>
    b19c:	e51b0008 	ldr	r0, [fp, #-8]
    b1a0:	eb00000d 	bl	b1dc <_ZN6UnrollILj58EE4callIZNK4GPIO12pull_up_downIA28_jEEv10PUD_STATUSRKT_EUlvE0_EEvS8_>
    b1a4:	e320f000 	nop	{0}
    b1a8:	e24bd004 	sub	sp, fp, #4
    b1ac:	e8bd8800 	pop	{fp, pc}

0000b1b0 <_ZN6UnrollILj58EE4callIZNK4GPIO12pull_up_downIA28_jEEv10PUD_STATUSRKT_EUlvE_EEvS8_>:
    b1b0:	e92d4800 	push	{fp, lr}
    b1b4:	e28db004 	add	fp, sp, #4
    b1b8:	e24dd008 	sub	sp, sp, #8
    b1bc:	e50b0008 	str	r0, [fp, #-8]
    b1c0:	e51b0008 	ldr	r0, [fp, #-8]
    b1c4:	ebfff7a7 	bl	9068 <_ZZNK4GPIO12pull_up_downIA28_jEEv10PUD_STATUSRKT_ENKUlvE_clEv>
    b1c8:	e51b0008 	ldr	r0, [fp, #-8]
    b1cc:	eb00000d 	bl	b208 <_ZN6UnrollILj57EE4callIZNK4GPIO12pull_up_downIA28_jEEv10PUD_STATUSRKT_EUlvE_EEvS8_>
    b1d0:	e320f000 	nop	{0}
    b1d4:	e24bd004 	sub	sp, fp, #4
    b1d8:	e8bd8800 	pop	{fp, pc}

0000b1dc <_ZN6UnrollILj58EE4callIZNK4GPIO12pull_up_downIA28_jEEv10PUD_STATUSRKT_EUlvE0_EEvS8_>:
    b1dc:	e92d4800 	push	{fp, lr}
    b1e0:	e28db004 	add	fp, sp, #4
    b1e4:	e24dd008 	sub	sp, sp, #8
    b1e8:	e50b0008 	str	r0, [fp, #-8]
    b1ec:	e51b0008 	ldr	r0, [fp, #-8]
    b1f0:	ebfff7aa 	bl	90a0 <_ZZNK4GPIO12pull_up_downIA28_jEEv10PUD_STATUSRKT_ENKUlvE0_clEv>
    b1f4:	e51b0008 	ldr	r0, [fp, #-8]
    b1f8:	eb00000d 	bl	b234 <_ZN6UnrollILj57EE4callIZNK4GPIO12pull_up_downIA28_jEEv10PUD_STATUSRKT_EUlvE0_EEvS8_>
    b1fc:	e320f000 	nop	{0}
    b200:	e24bd004 	sub	sp, fp, #4
    b204:	e8bd8800 	pop	{fp, pc}

0000b208 <_ZN6UnrollILj57EE4callIZNK4GPIO12pull_up_downIA28_jEEv10PUD_STATUSRKT_EUlvE_EEvS8_>:
    b208:	e92d4800 	push	{fp, lr}
    b20c:	e28db004 	add	fp, sp, #4
    b210:	e24dd008 	sub	sp, sp, #8
    b214:	e50b0008 	str	r0, [fp, #-8]
    b218:	e51b0008 	ldr	r0, [fp, #-8]
    b21c:	ebfff791 	bl	9068 <_ZZNK4GPIO12pull_up_downIA28_jEEv10PUD_STATUSRKT_ENKUlvE_clEv>
    b220:	e51b0008 	ldr	r0, [fp, #-8]
    b224:	eb00000d 	bl	b260 <_ZN6UnrollILj56EE4callIZNK4GPIO12pull_up_downIA28_jEEv10PUD_STATUSRKT_EUlvE_EEvS8_>
    b228:	e320f000 	nop	{0}
    b22c:	e24bd004 	sub	sp, fp, #4
    b230:	e8bd8800 	pop	{fp, pc}

0000b234 <_ZN6UnrollILj57EE4callIZNK4GPIO12pull_up_downIA28_jEEv10PUD_STATUSRKT_EUlvE0_EEvS8_>:
    b234:	e92d4800 	push	{fp, lr}
    b238:	e28db004 	add	fp, sp, #4
    b23c:	e24dd008 	sub	sp, sp, #8
    b240:	e50b0008 	str	r0, [fp, #-8]
    b244:	e51b0008 	ldr	r0, [fp, #-8]
    b248:	ebfff794 	bl	90a0 <_ZZNK4GPIO12pull_up_downIA28_jEEv10PUD_STATUSRKT_ENKUlvE0_clEv>
    b24c:	e51b0008 	ldr	r0, [fp, #-8]
    b250:	eb00000d 	bl	b28c <_ZN6UnrollILj56EE4callIZNK4GPIO12pull_up_downIA28_jEEv10PUD_STATUSRKT_EUlvE0_EEvS8_>
    b254:	e320f000 	nop	{0}
    b258:	e24bd004 	sub	sp, fp, #4
    b25c:	e8bd8800 	pop	{fp, pc}

0000b260 <_ZN6UnrollILj56EE4callIZNK4GPIO12pull_up_downIA28_jEEv10PUD_STATUSRKT_EUlvE_EEvS8_>:
    b260:	e92d4800 	push	{fp, lr}
    b264:	e28db004 	add	fp, sp, #4
    b268:	e24dd008 	sub	sp, sp, #8
    b26c:	e50b0008 	str	r0, [fp, #-8]
    b270:	e51b0008 	ldr	r0, [fp, #-8]
    b274:	ebfff77b 	bl	9068 <_ZZNK4GPIO12pull_up_downIA28_jEEv10PUD_STATUSRKT_ENKUlvE_clEv>
    b278:	e51b0008 	ldr	r0, [fp, #-8]
    b27c:	eb00000d 	bl	b2b8 <_ZN6UnrollILj55EE4callIZNK4GPIO12pull_up_downIA28_jEEv10PUD_STATUSRKT_EUlvE_EEvS8_>
    b280:	e320f000 	nop	{0}
    b284:	e24bd004 	sub	sp, fp, #4
    b288:	e8bd8800 	pop	{fp, pc}

0000b28c <_ZN6UnrollILj56EE4callIZNK4GPIO12pull_up_downIA28_jEEv10PUD_STATUSRKT_EUlvE0_EEvS8_>:
    b28c:	e92d4800 	push	{fp, lr}
    b290:	e28db004 	add	fp, sp, #4
    b294:	e24dd008 	sub	sp, sp, #8
    b298:	e50b0008 	str	r0, [fp, #-8]
    b29c:	e51b0008 	ldr	r0, [fp, #-8]
    b2a0:	ebfff77e 	bl	90a0 <_ZZNK4GPIO12pull_up_downIA28_jEEv10PUD_STATUSRKT_ENKUlvE0_clEv>
    b2a4:	e51b0008 	ldr	r0, [fp, #-8]
    b2a8:	eb00000d 	bl	b2e4 <_ZN6UnrollILj55EE4callIZNK4GPIO12pull_up_downIA28_jEEv10PUD_STATUSRKT_EUlvE0_EEvS8_>
    b2ac:	e320f000 	nop	{0}
    b2b0:	e24bd004 	sub	sp, fp, #4
    b2b4:	e8bd8800 	pop	{fp, pc}

0000b2b8 <_ZN6UnrollILj55EE4callIZNK4GPIO12pull_up_downIA28_jEEv10PUD_STATUSRKT_EUlvE_EEvS8_>:
    b2b8:	e92d4800 	push	{fp, lr}
    b2bc:	e28db004 	add	fp, sp, #4
    b2c0:	e24dd008 	sub	sp, sp, #8
    b2c4:	e50b0008 	str	r0, [fp, #-8]
    b2c8:	e51b0008 	ldr	r0, [fp, #-8]
    b2cc:	ebfff765 	bl	9068 <_ZZNK4GPIO12pull_up_downIA28_jEEv10PUD_STATUSRKT_ENKUlvE_clEv>
    b2d0:	e51b0008 	ldr	r0, [fp, #-8]
    b2d4:	eb00000d 	bl	b310 <_ZN6UnrollILj54EE4callIZNK4GPIO12pull_up_downIA28_jEEv10PUD_STATUSRKT_EUlvE_EEvS8_>
    b2d8:	e320f000 	nop	{0}
    b2dc:	e24bd004 	sub	sp, fp, #4
    b2e0:	e8bd8800 	pop	{fp, pc}

0000b2e4 <_ZN6UnrollILj55EE4callIZNK4GPIO12pull_up_downIA28_jEEv10PUD_STATUSRKT_EUlvE0_EEvS8_>:
    b2e4:	e92d4800 	push	{fp, lr}
    b2e8:	e28db004 	add	fp, sp, #4
    b2ec:	e24dd008 	sub	sp, sp, #8
    b2f0:	e50b0008 	str	r0, [fp, #-8]
    b2f4:	e51b0008 	ldr	r0, [fp, #-8]
    b2f8:	ebfff768 	bl	90a0 <_ZZNK4GPIO12pull_up_downIA28_jEEv10PUD_STATUSRKT_ENKUlvE0_clEv>
    b2fc:	e51b0008 	ldr	r0, [fp, #-8]
    b300:	eb00000d 	bl	b33c <_ZN6UnrollILj54EE4callIZNK4GPIO12pull_up_downIA28_jEEv10PUD_STATUSRKT_EUlvE0_EEvS8_>
    b304:	e320f000 	nop	{0}
    b308:	e24bd004 	sub	sp, fp, #4
    b30c:	e8bd8800 	pop	{fp, pc}

0000b310 <_ZN6UnrollILj54EE4callIZNK4GPIO12pull_up_downIA28_jEEv10PUD_STATUSRKT_EUlvE_EEvS8_>:
    b310:	e92d4800 	push	{fp, lr}
    b314:	e28db004 	add	fp, sp, #4
    b318:	e24dd008 	sub	sp, sp, #8
    b31c:	e50b0008 	str	r0, [fp, #-8]
    b320:	e51b0008 	ldr	r0, [fp, #-8]
    b324:	ebfff74f 	bl	9068 <_ZZNK4GPIO12pull_up_downIA28_jEEv10PUD_STATUSRKT_ENKUlvE_clEv>
    b328:	e51b0008 	ldr	r0, [fp, #-8]
    b32c:	eb00000d 	bl	b368 <_ZN6UnrollILj53EE4callIZNK4GPIO12pull_up_downIA28_jEEv10PUD_STATUSRKT_EUlvE_EEvS8_>
    b330:	e320f000 	nop	{0}
    b334:	e24bd004 	sub	sp, fp, #4
    b338:	e8bd8800 	pop	{fp, pc}

0000b33c <_ZN6UnrollILj54EE4callIZNK4GPIO12pull_up_downIA28_jEEv10PUD_STATUSRKT_EUlvE0_EEvS8_>:
    b33c:	e92d4800 	push	{fp, lr}
    b340:	e28db004 	add	fp, sp, #4
    b344:	e24dd008 	sub	sp, sp, #8
    b348:	e50b0008 	str	r0, [fp, #-8]
    b34c:	e51b0008 	ldr	r0, [fp, #-8]
    b350:	ebfff752 	bl	90a0 <_ZZNK4GPIO12pull_up_downIA28_jEEv10PUD_STATUSRKT_ENKUlvE0_clEv>
    b354:	e51b0008 	ldr	r0, [fp, #-8]
    b358:	eb00000d 	bl	b394 <_ZN6UnrollILj53EE4callIZNK4GPIO12pull_up_downIA28_jEEv10PUD_STATUSRKT_EUlvE0_EEvS8_>
    b35c:	e320f000 	nop	{0}
    b360:	e24bd004 	sub	sp, fp, #4
    b364:	e8bd8800 	pop	{fp, pc}

0000b368 <_ZN6UnrollILj53EE4callIZNK4GPIO12pull_up_downIA28_jEEv10PUD_STATUSRKT_EUlvE_EEvS8_>:
    b368:	e92d4800 	push	{fp, lr}
    b36c:	e28db004 	add	fp, sp, #4
    b370:	e24dd008 	sub	sp, sp, #8
    b374:	e50b0008 	str	r0, [fp, #-8]
    b378:	e51b0008 	ldr	r0, [fp, #-8]
    b37c:	ebfff739 	bl	9068 <_ZZNK4GPIO12pull_up_downIA28_jEEv10PUD_STATUSRKT_ENKUlvE_clEv>
    b380:	e51b0008 	ldr	r0, [fp, #-8]
    b384:	eb00000d 	bl	b3c0 <_ZN6UnrollILj52EE4callIZNK4GPIO12pull_up_downIA28_jEEv10PUD_STATUSRKT_EUlvE_EEvS8_>
    b388:	e320f000 	nop	{0}
    b38c:	e24bd004 	sub	sp, fp, #4
    b390:	e8bd8800 	pop	{fp, pc}

0000b394 <_ZN6UnrollILj53EE4callIZNK4GPIO12pull_up_downIA28_jEEv10PUD_STATUSRKT_EUlvE0_EEvS8_>:
    b394:	e92d4800 	push	{fp, lr}
    b398:	e28db004 	add	fp, sp, #4
    b39c:	e24dd008 	sub	sp, sp, #8
    b3a0:	e50b0008 	str	r0, [fp, #-8]
    b3a4:	e51b0008 	ldr	r0, [fp, #-8]
    b3a8:	ebfff73c 	bl	90a0 <_ZZNK4GPIO12pull_up_downIA28_jEEv10PUD_STATUSRKT_ENKUlvE0_clEv>
    b3ac:	e51b0008 	ldr	r0, [fp, #-8]
    b3b0:	eb00000d 	bl	b3ec <_ZN6UnrollILj52EE4callIZNK4GPIO12pull_up_downIA28_jEEv10PUD_STATUSRKT_EUlvE0_EEvS8_>
    b3b4:	e320f000 	nop	{0}
    b3b8:	e24bd004 	sub	sp, fp, #4
    b3bc:	e8bd8800 	pop	{fp, pc}

0000b3c0 <_ZN6UnrollILj52EE4callIZNK4GPIO12pull_up_downIA28_jEEv10PUD_STATUSRKT_EUlvE_EEvS8_>:
    b3c0:	e92d4800 	push	{fp, lr}
    b3c4:	e28db004 	add	fp, sp, #4
    b3c8:	e24dd008 	sub	sp, sp, #8
    b3cc:	e50b0008 	str	r0, [fp, #-8]
    b3d0:	e51b0008 	ldr	r0, [fp, #-8]
    b3d4:	ebfff723 	bl	9068 <_ZZNK4GPIO12pull_up_downIA28_jEEv10PUD_STATUSRKT_ENKUlvE_clEv>
    b3d8:	e51b0008 	ldr	r0, [fp, #-8]
    b3dc:	eb00000d 	bl	b418 <_ZN6UnrollILj51EE4callIZNK4GPIO12pull_up_downIA28_jEEv10PUD_STATUSRKT_EUlvE_EEvS8_>
    b3e0:	e320f000 	nop	{0}
    b3e4:	e24bd004 	sub	sp, fp, #4
    b3e8:	e8bd8800 	pop	{fp, pc}

0000b3ec <_ZN6UnrollILj52EE4callIZNK4GPIO12pull_up_downIA28_jEEv10PUD_STATUSRKT_EUlvE0_EEvS8_>:
    b3ec:	e92d4800 	push	{fp, lr}
    b3f0:	e28db004 	add	fp, sp, #4
    b3f4:	e24dd008 	sub	sp, sp, #8
    b3f8:	e50b0008 	str	r0, [fp, #-8]
    b3fc:	e51b0008 	ldr	r0, [fp, #-8]
    b400:	ebfff726 	bl	90a0 <_ZZNK4GPIO12pull_up_downIA28_jEEv10PUD_STATUSRKT_ENKUlvE0_clEv>
    b404:	e51b0008 	ldr	r0, [fp, #-8]
    b408:	eb00000d 	bl	b444 <_ZN6UnrollILj51EE4callIZNK4GPIO12pull_up_downIA28_jEEv10PUD_STATUSRKT_EUlvE0_EEvS8_>
    b40c:	e320f000 	nop	{0}
    b410:	e24bd004 	sub	sp, fp, #4
    b414:	e8bd8800 	pop	{fp, pc}

0000b418 <_ZN6UnrollILj51EE4callIZNK4GPIO12pull_up_downIA28_jEEv10PUD_STATUSRKT_EUlvE_EEvS8_>:
    b418:	e92d4800 	push	{fp, lr}
    b41c:	e28db004 	add	fp, sp, #4
    b420:	e24dd008 	sub	sp, sp, #8
    b424:	e50b0008 	str	r0, [fp, #-8]
    b428:	e51b0008 	ldr	r0, [fp, #-8]
    b42c:	ebfff70d 	bl	9068 <_ZZNK4GPIO12pull_up_downIA28_jEEv10PUD_STATUSRKT_ENKUlvE_clEv>
    b430:	e51b0008 	ldr	r0, [fp, #-8]
    b434:	eb00000d 	bl	b470 <_ZN6UnrollILj50EE4callIZNK4GPIO12pull_up_downIA28_jEEv10PUD_STATUSRKT_EUlvE_EEvS8_>
    b438:	e320f000 	nop	{0}
    b43c:	e24bd004 	sub	sp, fp, #4
    b440:	e8bd8800 	pop	{fp, pc}

0000b444 <_ZN6UnrollILj51EE4callIZNK4GPIO12pull_up_downIA28_jEEv10PUD_STATUSRKT_EUlvE0_EEvS8_>:
    b444:	e92d4800 	push	{fp, lr}
    b448:	e28db004 	add	fp, sp, #4
    b44c:	e24dd008 	sub	sp, sp, #8
    b450:	e50b0008 	str	r0, [fp, #-8]
    b454:	e51b0008 	ldr	r0, [fp, #-8]
    b458:	ebfff710 	bl	90a0 <_ZZNK4GPIO12pull_up_downIA28_jEEv10PUD_STATUSRKT_ENKUlvE0_clEv>
    b45c:	e51b0008 	ldr	r0, [fp, #-8]
    b460:	eb00000d 	bl	b49c <_ZN6UnrollILj50EE4callIZNK4GPIO12pull_up_downIA28_jEEv10PUD_STATUSRKT_EUlvE0_EEvS8_>
    b464:	e320f000 	nop	{0}
    b468:	e24bd004 	sub	sp, fp, #4
    b46c:	e8bd8800 	pop	{fp, pc}

0000b470 <_ZN6UnrollILj50EE4callIZNK4GPIO12pull_up_downIA28_jEEv10PUD_STATUSRKT_EUlvE_EEvS8_>:
    b470:	e92d4800 	push	{fp, lr}
    b474:	e28db004 	add	fp, sp, #4
    b478:	e24dd008 	sub	sp, sp, #8
    b47c:	e50b0008 	str	r0, [fp, #-8]
    b480:	e51b0008 	ldr	r0, [fp, #-8]
    b484:	ebfff6f7 	bl	9068 <_ZZNK4GPIO12pull_up_downIA28_jEEv10PUD_STATUSRKT_ENKUlvE_clEv>
    b488:	e51b0008 	ldr	r0, [fp, #-8]
    b48c:	eb00000d 	bl	b4c8 <_ZN6UnrollILj49EE4callIZNK4GPIO12pull_up_downIA28_jEEv10PUD_STATUSRKT_EUlvE_EEvS8_>
    b490:	e320f000 	nop	{0}
    b494:	e24bd004 	sub	sp, fp, #4
    b498:	e8bd8800 	pop	{fp, pc}

0000b49c <_ZN6UnrollILj50EE4callIZNK4GPIO12pull_up_downIA28_jEEv10PUD_STATUSRKT_EUlvE0_EEvS8_>:
    b49c:	e92d4800 	push	{fp, lr}
    b4a0:	e28db004 	add	fp, sp, #4
    b4a4:	e24dd008 	sub	sp, sp, #8
    b4a8:	e50b0008 	str	r0, [fp, #-8]
    b4ac:	e51b0008 	ldr	r0, [fp, #-8]
    b4b0:	ebfff6fa 	bl	90a0 <_ZZNK4GPIO12pull_up_downIA28_jEEv10PUD_STATUSRKT_ENKUlvE0_clEv>
    b4b4:	e51b0008 	ldr	r0, [fp, #-8]
    b4b8:	eb00000d 	bl	b4f4 <_ZN6UnrollILj49EE4callIZNK4GPIO12pull_up_downIA28_jEEv10PUD_STATUSRKT_EUlvE0_EEvS8_>
    b4bc:	e320f000 	nop	{0}
    b4c0:	e24bd004 	sub	sp, fp, #4
    b4c4:	e8bd8800 	pop	{fp, pc}

0000b4c8 <_ZN6UnrollILj49EE4callIZNK4GPIO12pull_up_downIA28_jEEv10PUD_STATUSRKT_EUlvE_EEvS8_>:
    b4c8:	e92d4800 	push	{fp, lr}
    b4cc:	e28db004 	add	fp, sp, #4
    b4d0:	e24dd008 	sub	sp, sp, #8
    b4d4:	e50b0008 	str	r0, [fp, #-8]
    b4d8:	e51b0008 	ldr	r0, [fp, #-8]
    b4dc:	ebfff6e1 	bl	9068 <_ZZNK4GPIO12pull_up_downIA28_jEEv10PUD_STATUSRKT_ENKUlvE_clEv>
    b4e0:	e51b0008 	ldr	r0, [fp, #-8]
    b4e4:	eb00000d 	bl	b520 <_ZN6UnrollILj48EE4callIZNK4GPIO12pull_up_downIA28_jEEv10PUD_STATUSRKT_EUlvE_EEvS8_>
    b4e8:	e320f000 	nop	{0}
    b4ec:	e24bd004 	sub	sp, fp, #4
    b4f0:	e8bd8800 	pop	{fp, pc}

0000b4f4 <_ZN6UnrollILj49EE4callIZNK4GPIO12pull_up_downIA28_jEEv10PUD_STATUSRKT_EUlvE0_EEvS8_>:
    b4f4:	e92d4800 	push	{fp, lr}
    b4f8:	e28db004 	add	fp, sp, #4
    b4fc:	e24dd008 	sub	sp, sp, #8
    b500:	e50b0008 	str	r0, [fp, #-8]
    b504:	e51b0008 	ldr	r0, [fp, #-8]
    b508:	ebfff6e4 	bl	90a0 <_ZZNK4GPIO12pull_up_downIA28_jEEv10PUD_STATUSRKT_ENKUlvE0_clEv>
    b50c:	e51b0008 	ldr	r0, [fp, #-8]
    b510:	eb00000d 	bl	b54c <_ZN6UnrollILj48EE4callIZNK4GPIO12pull_up_downIA28_jEEv10PUD_STATUSRKT_EUlvE0_EEvS8_>
    b514:	e320f000 	nop	{0}
    b518:	e24bd004 	sub	sp, fp, #4
    b51c:	e8bd8800 	pop	{fp, pc}

0000b520 <_ZN6UnrollILj48EE4callIZNK4GPIO12pull_up_downIA28_jEEv10PUD_STATUSRKT_EUlvE_EEvS8_>:
    b520:	e92d4800 	push	{fp, lr}
    b524:	e28db004 	add	fp, sp, #4
    b528:	e24dd008 	sub	sp, sp, #8
    b52c:	e50b0008 	str	r0, [fp, #-8]
    b530:	e51b0008 	ldr	r0, [fp, #-8]
    b534:	ebfff6cb 	bl	9068 <_ZZNK4GPIO12pull_up_downIA28_jEEv10PUD_STATUSRKT_ENKUlvE_clEv>
    b538:	e51b0008 	ldr	r0, [fp, #-8]
    b53c:	eb00000d 	bl	b578 <_ZN6UnrollILj47EE4callIZNK4GPIO12pull_up_downIA28_jEEv10PUD_STATUSRKT_EUlvE_EEvS8_>
    b540:	e320f000 	nop	{0}
    b544:	e24bd004 	sub	sp, fp, #4
    b548:	e8bd8800 	pop	{fp, pc}

0000b54c <_ZN6UnrollILj48EE4callIZNK4GPIO12pull_up_downIA28_jEEv10PUD_STATUSRKT_EUlvE0_EEvS8_>:
    b54c:	e92d4800 	push	{fp, lr}
    b550:	e28db004 	add	fp, sp, #4
    b554:	e24dd008 	sub	sp, sp, #8
    b558:	e50b0008 	str	r0, [fp, #-8]
    b55c:	e51b0008 	ldr	r0, [fp, #-8]
    b560:	ebfff6ce 	bl	90a0 <_ZZNK4GPIO12pull_up_downIA28_jEEv10PUD_STATUSRKT_ENKUlvE0_clEv>
    b564:	e51b0008 	ldr	r0, [fp, #-8]
    b568:	eb00000d 	bl	b5a4 <_ZN6UnrollILj47EE4callIZNK4GPIO12pull_up_downIA28_jEEv10PUD_STATUSRKT_EUlvE0_EEvS8_>
    b56c:	e320f000 	nop	{0}
    b570:	e24bd004 	sub	sp, fp, #4
    b574:	e8bd8800 	pop	{fp, pc}

0000b578 <_ZN6UnrollILj47EE4callIZNK4GPIO12pull_up_downIA28_jEEv10PUD_STATUSRKT_EUlvE_EEvS8_>:
    b578:	e92d4800 	push	{fp, lr}
    b57c:	e28db004 	add	fp, sp, #4
    b580:	e24dd008 	sub	sp, sp, #8
    b584:	e50b0008 	str	r0, [fp, #-8]
    b588:	e51b0008 	ldr	r0, [fp, #-8]
    b58c:	ebfff6b5 	bl	9068 <_ZZNK4GPIO12pull_up_downIA28_jEEv10PUD_STATUSRKT_ENKUlvE_clEv>
    b590:	e51b0008 	ldr	r0, [fp, #-8]
    b594:	eb00000d 	bl	b5d0 <_ZN6UnrollILj46EE4callIZNK4GPIO12pull_up_downIA28_jEEv10PUD_STATUSRKT_EUlvE_EEvS8_>
    b598:	e320f000 	nop	{0}
    b59c:	e24bd004 	sub	sp, fp, #4
    b5a0:	e8bd8800 	pop	{fp, pc}

0000b5a4 <_ZN6UnrollILj47EE4callIZNK4GPIO12pull_up_downIA28_jEEv10PUD_STATUSRKT_EUlvE0_EEvS8_>:
    b5a4:	e92d4800 	push	{fp, lr}
    b5a8:	e28db004 	add	fp, sp, #4
    b5ac:	e24dd008 	sub	sp, sp, #8
    b5b0:	e50b0008 	str	r0, [fp, #-8]
    b5b4:	e51b0008 	ldr	r0, [fp, #-8]
    b5b8:	ebfff6b8 	bl	90a0 <_ZZNK4GPIO12pull_up_downIA28_jEEv10PUD_STATUSRKT_ENKUlvE0_clEv>
    b5bc:	e51b0008 	ldr	r0, [fp, #-8]
    b5c0:	eb00000d 	bl	b5fc <_ZN6UnrollILj46EE4callIZNK4GPIO12pull_up_downIA28_jEEv10PUD_STATUSRKT_EUlvE0_EEvS8_>
    b5c4:	e320f000 	nop	{0}
    b5c8:	e24bd004 	sub	sp, fp, #4
    b5cc:	e8bd8800 	pop	{fp, pc}

0000b5d0 <_ZN6UnrollILj46EE4callIZNK4GPIO12pull_up_downIA28_jEEv10PUD_STATUSRKT_EUlvE_EEvS8_>:
    b5d0:	e92d4800 	push	{fp, lr}
    b5d4:	e28db004 	add	fp, sp, #4
    b5d8:	e24dd008 	sub	sp, sp, #8
    b5dc:	e50b0008 	str	r0, [fp, #-8]
    b5e0:	e51b0008 	ldr	r0, [fp, #-8]
    b5e4:	ebfff69f 	bl	9068 <_ZZNK4GPIO12pull_up_downIA28_jEEv10PUD_STATUSRKT_ENKUlvE_clEv>
    b5e8:	e51b0008 	ldr	r0, [fp, #-8]
    b5ec:	eb00000d 	bl	b628 <_ZN6UnrollILj45EE4callIZNK4GPIO12pull_up_downIA28_jEEv10PUD_STATUSRKT_EUlvE_EEvS8_>
    b5f0:	e320f000 	nop	{0}
    b5f4:	e24bd004 	sub	sp, fp, #4
    b5f8:	e8bd8800 	pop	{fp, pc}

0000b5fc <_ZN6UnrollILj46EE4callIZNK4GPIO12pull_up_downIA28_jEEv10PUD_STATUSRKT_EUlvE0_EEvS8_>:
    b5fc:	e92d4800 	push	{fp, lr}
    b600:	e28db004 	add	fp, sp, #4
    b604:	e24dd008 	sub	sp, sp, #8
    b608:	e50b0008 	str	r0, [fp, #-8]
    b60c:	e51b0008 	ldr	r0, [fp, #-8]
    b610:	ebfff6a2 	bl	90a0 <_ZZNK4GPIO12pull_up_downIA28_jEEv10PUD_STATUSRKT_ENKUlvE0_clEv>
    b614:	e51b0008 	ldr	r0, [fp, #-8]
    b618:	eb00000d 	bl	b654 <_ZN6UnrollILj45EE4callIZNK4GPIO12pull_up_downIA28_jEEv10PUD_STATUSRKT_EUlvE0_EEvS8_>
    b61c:	e320f000 	nop	{0}
    b620:	e24bd004 	sub	sp, fp, #4
    b624:	e8bd8800 	pop	{fp, pc}

0000b628 <_ZN6UnrollILj45EE4callIZNK4GPIO12pull_up_downIA28_jEEv10PUD_STATUSRKT_EUlvE_EEvS8_>:
    b628:	e92d4800 	push	{fp, lr}
    b62c:	e28db004 	add	fp, sp, #4
    b630:	e24dd008 	sub	sp, sp, #8
    b634:	e50b0008 	str	r0, [fp, #-8]
    b638:	e51b0008 	ldr	r0, [fp, #-8]
    b63c:	ebfff689 	bl	9068 <_ZZNK4GPIO12pull_up_downIA28_jEEv10PUD_STATUSRKT_ENKUlvE_clEv>
    b640:	e51b0008 	ldr	r0, [fp, #-8]
    b644:	eb00000d 	bl	b680 <_ZN6UnrollILj44EE4callIZNK4GPIO12pull_up_downIA28_jEEv10PUD_STATUSRKT_EUlvE_EEvS8_>
    b648:	e320f000 	nop	{0}
    b64c:	e24bd004 	sub	sp, fp, #4
    b650:	e8bd8800 	pop	{fp, pc}

0000b654 <_ZN6UnrollILj45EE4callIZNK4GPIO12pull_up_downIA28_jEEv10PUD_STATUSRKT_EUlvE0_EEvS8_>:
    b654:	e92d4800 	push	{fp, lr}
    b658:	e28db004 	add	fp, sp, #4
    b65c:	e24dd008 	sub	sp, sp, #8
    b660:	e50b0008 	str	r0, [fp, #-8]
    b664:	e51b0008 	ldr	r0, [fp, #-8]
    b668:	ebfff68c 	bl	90a0 <_ZZNK4GPIO12pull_up_downIA28_jEEv10PUD_STATUSRKT_ENKUlvE0_clEv>
    b66c:	e51b0008 	ldr	r0, [fp, #-8]
    b670:	eb00000d 	bl	b6ac <_ZN6UnrollILj44EE4callIZNK4GPIO12pull_up_downIA28_jEEv10PUD_STATUSRKT_EUlvE0_EEvS8_>
    b674:	e320f000 	nop	{0}
    b678:	e24bd004 	sub	sp, fp, #4
    b67c:	e8bd8800 	pop	{fp, pc}

0000b680 <_ZN6UnrollILj44EE4callIZNK4GPIO12pull_up_downIA28_jEEv10PUD_STATUSRKT_EUlvE_EEvS8_>:
    b680:	e92d4800 	push	{fp, lr}
    b684:	e28db004 	add	fp, sp, #4
    b688:	e24dd008 	sub	sp, sp, #8
    b68c:	e50b0008 	str	r0, [fp, #-8]
    b690:	e51b0008 	ldr	r0, [fp, #-8]
    b694:	ebfff673 	bl	9068 <_ZZNK4GPIO12pull_up_downIA28_jEEv10PUD_STATUSRKT_ENKUlvE_clEv>
    b698:	e51b0008 	ldr	r0, [fp, #-8]
    b69c:	eb00000d 	bl	b6d8 <_ZN6UnrollILj43EE4callIZNK4GPIO12pull_up_downIA28_jEEv10PUD_STATUSRKT_EUlvE_EEvS8_>
    b6a0:	e320f000 	nop	{0}
    b6a4:	e24bd004 	sub	sp, fp, #4
    b6a8:	e8bd8800 	pop	{fp, pc}

0000b6ac <_ZN6UnrollILj44EE4callIZNK4GPIO12pull_up_downIA28_jEEv10PUD_STATUSRKT_EUlvE0_EEvS8_>:
    b6ac:	e92d4800 	push	{fp, lr}
    b6b0:	e28db004 	add	fp, sp, #4
    b6b4:	e24dd008 	sub	sp, sp, #8
    b6b8:	e50b0008 	str	r0, [fp, #-8]
    b6bc:	e51b0008 	ldr	r0, [fp, #-8]
    b6c0:	ebfff676 	bl	90a0 <_ZZNK4GPIO12pull_up_downIA28_jEEv10PUD_STATUSRKT_ENKUlvE0_clEv>
    b6c4:	e51b0008 	ldr	r0, [fp, #-8]
    b6c8:	eb00000d 	bl	b704 <_ZN6UnrollILj43EE4callIZNK4GPIO12pull_up_downIA28_jEEv10PUD_STATUSRKT_EUlvE0_EEvS8_>
    b6cc:	e320f000 	nop	{0}
    b6d0:	e24bd004 	sub	sp, fp, #4
    b6d4:	e8bd8800 	pop	{fp, pc}

0000b6d8 <_ZN6UnrollILj43EE4callIZNK4GPIO12pull_up_downIA28_jEEv10PUD_STATUSRKT_EUlvE_EEvS8_>:
    b6d8:	e92d4800 	push	{fp, lr}
    b6dc:	e28db004 	add	fp, sp, #4
    b6e0:	e24dd008 	sub	sp, sp, #8
    b6e4:	e50b0008 	str	r0, [fp, #-8]
    b6e8:	e51b0008 	ldr	r0, [fp, #-8]
    b6ec:	ebfff65d 	bl	9068 <_ZZNK4GPIO12pull_up_downIA28_jEEv10PUD_STATUSRKT_ENKUlvE_clEv>
    b6f0:	e51b0008 	ldr	r0, [fp, #-8]
    b6f4:	eb00000d 	bl	b730 <_ZN6UnrollILj42EE4callIZNK4GPIO12pull_up_downIA28_jEEv10PUD_STATUSRKT_EUlvE_EEvS8_>
    b6f8:	e320f000 	nop	{0}
    b6fc:	e24bd004 	sub	sp, fp, #4
    b700:	e8bd8800 	pop	{fp, pc}

0000b704 <_ZN6UnrollILj43EE4callIZNK4GPIO12pull_up_downIA28_jEEv10PUD_STATUSRKT_EUlvE0_EEvS8_>:
    b704:	e92d4800 	push	{fp, lr}
    b708:	e28db004 	add	fp, sp, #4
    b70c:	e24dd008 	sub	sp, sp, #8
    b710:	e50b0008 	str	r0, [fp, #-8]
    b714:	e51b0008 	ldr	r0, [fp, #-8]
    b718:	ebfff660 	bl	90a0 <_ZZNK4GPIO12pull_up_downIA28_jEEv10PUD_STATUSRKT_ENKUlvE0_clEv>
    b71c:	e51b0008 	ldr	r0, [fp, #-8]
    b720:	eb00000d 	bl	b75c <_ZN6UnrollILj42EE4callIZNK4GPIO12pull_up_downIA28_jEEv10PUD_STATUSRKT_EUlvE0_EEvS8_>
    b724:	e320f000 	nop	{0}
    b728:	e24bd004 	sub	sp, fp, #4
    b72c:	e8bd8800 	pop	{fp, pc}

0000b730 <_ZN6UnrollILj42EE4callIZNK4GPIO12pull_up_downIA28_jEEv10PUD_STATUSRKT_EUlvE_EEvS8_>:
    b730:	e92d4800 	push	{fp, lr}
    b734:	e28db004 	add	fp, sp, #4
    b738:	e24dd008 	sub	sp, sp, #8
    b73c:	e50b0008 	str	r0, [fp, #-8]
    b740:	e51b0008 	ldr	r0, [fp, #-8]
    b744:	ebfff647 	bl	9068 <_ZZNK4GPIO12pull_up_downIA28_jEEv10PUD_STATUSRKT_ENKUlvE_clEv>
    b748:	e51b0008 	ldr	r0, [fp, #-8]
    b74c:	eb00000d 	bl	b788 <_ZN6UnrollILj41EE4callIZNK4GPIO12pull_up_downIA28_jEEv10PUD_STATUSRKT_EUlvE_EEvS8_>
    b750:	e320f000 	nop	{0}
    b754:	e24bd004 	sub	sp, fp, #4
    b758:	e8bd8800 	pop	{fp, pc}

0000b75c <_ZN6UnrollILj42EE4callIZNK4GPIO12pull_up_downIA28_jEEv10PUD_STATUSRKT_EUlvE0_EEvS8_>:
    b75c:	e92d4800 	push	{fp, lr}
    b760:	e28db004 	add	fp, sp, #4
    b764:	e24dd008 	sub	sp, sp, #8
    b768:	e50b0008 	str	r0, [fp, #-8]
    b76c:	e51b0008 	ldr	r0, [fp, #-8]
    b770:	ebfff64a 	bl	90a0 <_ZZNK4GPIO12pull_up_downIA28_jEEv10PUD_STATUSRKT_ENKUlvE0_clEv>
    b774:	e51b0008 	ldr	r0, [fp, #-8]
    b778:	eb00000d 	bl	b7b4 <_ZN6UnrollILj41EE4callIZNK4GPIO12pull_up_downIA28_jEEv10PUD_STATUSRKT_EUlvE0_EEvS8_>
    b77c:	e320f000 	nop	{0}
    b780:	e24bd004 	sub	sp, fp, #4
    b784:	e8bd8800 	pop	{fp, pc}

0000b788 <_ZN6UnrollILj41EE4callIZNK4GPIO12pull_up_downIA28_jEEv10PUD_STATUSRKT_EUlvE_EEvS8_>:
    b788:	e92d4800 	push	{fp, lr}
    b78c:	e28db004 	add	fp, sp, #4
    b790:	e24dd008 	sub	sp, sp, #8
    b794:	e50b0008 	str	r0, [fp, #-8]
    b798:	e51b0008 	ldr	r0, [fp, #-8]
    b79c:	ebfff631 	bl	9068 <_ZZNK4GPIO12pull_up_downIA28_jEEv10PUD_STATUSRKT_ENKUlvE_clEv>
    b7a0:	e51b0008 	ldr	r0, [fp, #-8]
    b7a4:	eb00000d 	bl	b7e0 <_ZN6UnrollILj40EE4callIZNK4GPIO12pull_up_downIA28_jEEv10PUD_STATUSRKT_EUlvE_EEvS8_>
    b7a8:	e320f000 	nop	{0}
    b7ac:	e24bd004 	sub	sp, fp, #4
    b7b0:	e8bd8800 	pop	{fp, pc}

0000b7b4 <_ZN6UnrollILj41EE4callIZNK4GPIO12pull_up_downIA28_jEEv10PUD_STATUSRKT_EUlvE0_EEvS8_>:
    b7b4:	e92d4800 	push	{fp, lr}
    b7b8:	e28db004 	add	fp, sp, #4
    b7bc:	e24dd008 	sub	sp, sp, #8
    b7c0:	e50b0008 	str	r0, [fp, #-8]
    b7c4:	e51b0008 	ldr	r0, [fp, #-8]
    b7c8:	ebfff634 	bl	90a0 <_ZZNK4GPIO12pull_up_downIA28_jEEv10PUD_STATUSRKT_ENKUlvE0_clEv>
    b7cc:	e51b0008 	ldr	r0, [fp, #-8]
    b7d0:	eb00000d 	bl	b80c <_ZN6UnrollILj40EE4callIZNK4GPIO12pull_up_downIA28_jEEv10PUD_STATUSRKT_EUlvE0_EEvS8_>
    b7d4:	e320f000 	nop	{0}
    b7d8:	e24bd004 	sub	sp, fp, #4
    b7dc:	e8bd8800 	pop	{fp, pc}

0000b7e0 <_ZN6UnrollILj40EE4callIZNK4GPIO12pull_up_downIA28_jEEv10PUD_STATUSRKT_EUlvE_EEvS8_>:
    b7e0:	e92d4800 	push	{fp, lr}
    b7e4:	e28db004 	add	fp, sp, #4
    b7e8:	e24dd008 	sub	sp, sp, #8
    b7ec:	e50b0008 	str	r0, [fp, #-8]
    b7f0:	e51b0008 	ldr	r0, [fp, #-8]
    b7f4:	ebfff61b 	bl	9068 <_ZZNK4GPIO12pull_up_downIA28_jEEv10PUD_STATUSRKT_ENKUlvE_clEv>
    b7f8:	e51b0008 	ldr	r0, [fp, #-8]
    b7fc:	eb00000d 	bl	b838 <_ZN6UnrollILj39EE4callIZNK4GPIO12pull_up_downIA28_jEEv10PUD_STATUSRKT_EUlvE_EEvS8_>
    b800:	e320f000 	nop	{0}
    b804:	e24bd004 	sub	sp, fp, #4
    b808:	e8bd8800 	pop	{fp, pc}

0000b80c <_ZN6UnrollILj40EE4callIZNK4GPIO12pull_up_downIA28_jEEv10PUD_STATUSRKT_EUlvE0_EEvS8_>:
    b80c:	e92d4800 	push	{fp, lr}
    b810:	e28db004 	add	fp, sp, #4
    b814:	e24dd008 	sub	sp, sp, #8
    b818:	e50b0008 	str	r0, [fp, #-8]
    b81c:	e51b0008 	ldr	r0, [fp, #-8]
    b820:	ebfff61e 	bl	90a0 <_ZZNK4GPIO12pull_up_downIA28_jEEv10PUD_STATUSRKT_ENKUlvE0_clEv>
    b824:	e51b0008 	ldr	r0, [fp, #-8]
    b828:	eb00000d 	bl	b864 <_ZN6UnrollILj39EE4callIZNK4GPIO12pull_up_downIA28_jEEv10PUD_STATUSRKT_EUlvE0_EEvS8_>
    b82c:	e320f000 	nop	{0}
    b830:	e24bd004 	sub	sp, fp, #4
    b834:	e8bd8800 	pop	{fp, pc}

0000b838 <_ZN6UnrollILj39EE4callIZNK4GPIO12pull_up_downIA28_jEEv10PUD_STATUSRKT_EUlvE_EEvS8_>:
    b838:	e92d4800 	push	{fp, lr}
    b83c:	e28db004 	add	fp, sp, #4
    b840:	e24dd008 	sub	sp, sp, #8
    b844:	e50b0008 	str	r0, [fp, #-8]
    b848:	e51b0008 	ldr	r0, [fp, #-8]
    b84c:	ebfff605 	bl	9068 <_ZZNK4GPIO12pull_up_downIA28_jEEv10PUD_STATUSRKT_ENKUlvE_clEv>
    b850:	e51b0008 	ldr	r0, [fp, #-8]
    b854:	eb00000d 	bl	b890 <_ZN6UnrollILj38EE4callIZNK4GPIO12pull_up_downIA28_jEEv10PUD_STATUSRKT_EUlvE_EEvS8_>
    b858:	e320f000 	nop	{0}
    b85c:	e24bd004 	sub	sp, fp, #4
    b860:	e8bd8800 	pop	{fp, pc}

0000b864 <_ZN6UnrollILj39EE4callIZNK4GPIO12pull_up_downIA28_jEEv10PUD_STATUSRKT_EUlvE0_EEvS8_>:
    b864:	e92d4800 	push	{fp, lr}
    b868:	e28db004 	add	fp, sp, #4
    b86c:	e24dd008 	sub	sp, sp, #8
    b870:	e50b0008 	str	r0, [fp, #-8]
    b874:	e51b0008 	ldr	r0, [fp, #-8]
    b878:	ebfff608 	bl	90a0 <_ZZNK4GPIO12pull_up_downIA28_jEEv10PUD_STATUSRKT_ENKUlvE0_clEv>
    b87c:	e51b0008 	ldr	r0, [fp, #-8]
    b880:	eb00000d 	bl	b8bc <_ZN6UnrollILj38EE4callIZNK4GPIO12pull_up_downIA28_jEEv10PUD_STATUSRKT_EUlvE0_EEvS8_>
    b884:	e320f000 	nop	{0}
    b888:	e24bd004 	sub	sp, fp, #4
    b88c:	e8bd8800 	pop	{fp, pc}

0000b890 <_ZN6UnrollILj38EE4callIZNK4GPIO12pull_up_downIA28_jEEv10PUD_STATUSRKT_EUlvE_EEvS8_>:
    b890:	e92d4800 	push	{fp, lr}
    b894:	e28db004 	add	fp, sp, #4
    b898:	e24dd008 	sub	sp, sp, #8
    b89c:	e50b0008 	str	r0, [fp, #-8]
    b8a0:	e51b0008 	ldr	r0, [fp, #-8]
    b8a4:	ebfff5ef 	bl	9068 <_ZZNK4GPIO12pull_up_downIA28_jEEv10PUD_STATUSRKT_ENKUlvE_clEv>
    b8a8:	e51b0008 	ldr	r0, [fp, #-8]
    b8ac:	eb00000d 	bl	b8e8 <_ZN6UnrollILj37EE4callIZNK4GPIO12pull_up_downIA28_jEEv10PUD_STATUSRKT_EUlvE_EEvS8_>
    b8b0:	e320f000 	nop	{0}
    b8b4:	e24bd004 	sub	sp, fp, #4
    b8b8:	e8bd8800 	pop	{fp, pc}

0000b8bc <_ZN6UnrollILj38EE4callIZNK4GPIO12pull_up_downIA28_jEEv10PUD_STATUSRKT_EUlvE0_EEvS8_>:
    b8bc:	e92d4800 	push	{fp, lr}
    b8c0:	e28db004 	add	fp, sp, #4
    b8c4:	e24dd008 	sub	sp, sp, #8
    b8c8:	e50b0008 	str	r0, [fp, #-8]
    b8cc:	e51b0008 	ldr	r0, [fp, #-8]
    b8d0:	ebfff5f2 	bl	90a0 <_ZZNK4GPIO12pull_up_downIA28_jEEv10PUD_STATUSRKT_ENKUlvE0_clEv>
    b8d4:	e51b0008 	ldr	r0, [fp, #-8]
    b8d8:	eb00000d 	bl	b914 <_ZN6UnrollILj37EE4callIZNK4GPIO12pull_up_downIA28_jEEv10PUD_STATUSRKT_EUlvE0_EEvS8_>
    b8dc:	e320f000 	nop	{0}
    b8e0:	e24bd004 	sub	sp, fp, #4
    b8e4:	e8bd8800 	pop	{fp, pc}

0000b8e8 <_ZN6UnrollILj37EE4callIZNK4GPIO12pull_up_downIA28_jEEv10PUD_STATUSRKT_EUlvE_EEvS8_>:
    b8e8:	e92d4800 	push	{fp, lr}
    b8ec:	e28db004 	add	fp, sp, #4
    b8f0:	e24dd008 	sub	sp, sp, #8
    b8f4:	e50b0008 	str	r0, [fp, #-8]
    b8f8:	e51b0008 	ldr	r0, [fp, #-8]
    b8fc:	ebfff5d9 	bl	9068 <_ZZNK4GPIO12pull_up_downIA28_jEEv10PUD_STATUSRKT_ENKUlvE_clEv>
    b900:	e51b0008 	ldr	r0, [fp, #-8]
    b904:	eb00000d 	bl	b940 <_ZN6UnrollILj36EE4callIZNK4GPIO12pull_up_downIA28_jEEv10PUD_STATUSRKT_EUlvE_EEvS8_>
    b908:	e320f000 	nop	{0}
    b90c:	e24bd004 	sub	sp, fp, #4
    b910:	e8bd8800 	pop	{fp, pc}

0000b914 <_ZN6UnrollILj37EE4callIZNK4GPIO12pull_up_downIA28_jEEv10PUD_STATUSRKT_EUlvE0_EEvS8_>:
    b914:	e92d4800 	push	{fp, lr}
    b918:	e28db004 	add	fp, sp, #4
    b91c:	e24dd008 	sub	sp, sp, #8
    b920:	e50b0008 	str	r0, [fp, #-8]
    b924:	e51b0008 	ldr	r0, [fp, #-8]
    b928:	ebfff5dc 	bl	90a0 <_ZZNK4GPIO12pull_up_downIA28_jEEv10PUD_STATUSRKT_ENKUlvE0_clEv>
    b92c:	e51b0008 	ldr	r0, [fp, #-8]
    b930:	eb00000d 	bl	b96c <_ZN6UnrollILj36EE4callIZNK4GPIO12pull_up_downIA28_jEEv10PUD_STATUSRKT_EUlvE0_EEvS8_>
    b934:	e320f000 	nop	{0}
    b938:	e24bd004 	sub	sp, fp, #4
    b93c:	e8bd8800 	pop	{fp, pc}

0000b940 <_ZN6UnrollILj36EE4callIZNK4GPIO12pull_up_downIA28_jEEv10PUD_STATUSRKT_EUlvE_EEvS8_>:
    b940:	e92d4800 	push	{fp, lr}
    b944:	e28db004 	add	fp, sp, #4
    b948:	e24dd008 	sub	sp, sp, #8
    b94c:	e50b0008 	str	r0, [fp, #-8]
    b950:	e51b0008 	ldr	r0, [fp, #-8]
    b954:	ebfff5c3 	bl	9068 <_ZZNK4GPIO12pull_up_downIA28_jEEv10PUD_STATUSRKT_ENKUlvE_clEv>
    b958:	e51b0008 	ldr	r0, [fp, #-8]
    b95c:	eb00000d 	bl	b998 <_ZN6UnrollILj35EE4callIZNK4GPIO12pull_up_downIA28_jEEv10PUD_STATUSRKT_EUlvE_EEvS8_>
    b960:	e320f000 	nop	{0}
    b964:	e24bd004 	sub	sp, fp, #4
    b968:	e8bd8800 	pop	{fp, pc}

0000b96c <_ZN6UnrollILj36EE4callIZNK4GPIO12pull_up_downIA28_jEEv10PUD_STATUSRKT_EUlvE0_EEvS8_>:
    b96c:	e92d4800 	push	{fp, lr}
    b970:	e28db004 	add	fp, sp, #4
    b974:	e24dd008 	sub	sp, sp, #8
    b978:	e50b0008 	str	r0, [fp, #-8]
    b97c:	e51b0008 	ldr	r0, [fp, #-8]
    b980:	ebfff5c6 	bl	90a0 <_ZZNK4GPIO12pull_up_downIA28_jEEv10PUD_STATUSRKT_ENKUlvE0_clEv>
    b984:	e51b0008 	ldr	r0, [fp, #-8]
    b988:	eb00000d 	bl	b9c4 <_ZN6UnrollILj35EE4callIZNK4GPIO12pull_up_downIA28_jEEv10PUD_STATUSRKT_EUlvE0_EEvS8_>
    b98c:	e320f000 	nop	{0}
    b990:	e24bd004 	sub	sp, fp, #4
    b994:	e8bd8800 	pop	{fp, pc}

0000b998 <_ZN6UnrollILj35EE4callIZNK4GPIO12pull_up_downIA28_jEEv10PUD_STATUSRKT_EUlvE_EEvS8_>:
    b998:	e92d4800 	push	{fp, lr}
    b99c:	e28db004 	add	fp, sp, #4
    b9a0:	e24dd008 	sub	sp, sp, #8
    b9a4:	e50b0008 	str	r0, [fp, #-8]
    b9a8:	e51b0008 	ldr	r0, [fp, #-8]
    b9ac:	ebfff5ad 	bl	9068 <_ZZNK4GPIO12pull_up_downIA28_jEEv10PUD_STATUSRKT_ENKUlvE_clEv>
    b9b0:	e51b0008 	ldr	r0, [fp, #-8]
    b9b4:	eb00000d 	bl	b9f0 <_ZN6UnrollILj34EE4callIZNK4GPIO12pull_up_downIA28_jEEv10PUD_STATUSRKT_EUlvE_EEvS8_>
    b9b8:	e320f000 	nop	{0}
    b9bc:	e24bd004 	sub	sp, fp, #4
    b9c0:	e8bd8800 	pop	{fp, pc}

0000b9c4 <_ZN6UnrollILj35EE4callIZNK4GPIO12pull_up_downIA28_jEEv10PUD_STATUSRKT_EUlvE0_EEvS8_>:
    b9c4:	e92d4800 	push	{fp, lr}
    b9c8:	e28db004 	add	fp, sp, #4
    b9cc:	e24dd008 	sub	sp, sp, #8
    b9d0:	e50b0008 	str	r0, [fp, #-8]
    b9d4:	e51b0008 	ldr	r0, [fp, #-8]
    b9d8:	ebfff5b0 	bl	90a0 <_ZZNK4GPIO12pull_up_downIA28_jEEv10PUD_STATUSRKT_ENKUlvE0_clEv>
    b9dc:	e51b0008 	ldr	r0, [fp, #-8]
    b9e0:	eb00000d 	bl	ba1c <_ZN6UnrollILj34EE4callIZNK4GPIO12pull_up_downIA28_jEEv10PUD_STATUSRKT_EUlvE0_EEvS8_>
    b9e4:	e320f000 	nop	{0}
    b9e8:	e24bd004 	sub	sp, fp, #4
    b9ec:	e8bd8800 	pop	{fp, pc}

0000b9f0 <_ZN6UnrollILj34EE4callIZNK4GPIO12pull_up_downIA28_jEEv10PUD_STATUSRKT_EUlvE_EEvS8_>:
    b9f0:	e92d4800 	push	{fp, lr}
    b9f4:	e28db004 	add	fp, sp, #4
    b9f8:	e24dd008 	sub	sp, sp, #8
    b9fc:	e50b0008 	str	r0, [fp, #-8]
    ba00:	e51b0008 	ldr	r0, [fp, #-8]
    ba04:	ebfff597 	bl	9068 <_ZZNK4GPIO12pull_up_downIA28_jEEv10PUD_STATUSRKT_ENKUlvE_clEv>
    ba08:	e51b0008 	ldr	r0, [fp, #-8]
    ba0c:	eb00000d 	bl	ba48 <_ZN6UnrollILj33EE4callIZNK4GPIO12pull_up_downIA28_jEEv10PUD_STATUSRKT_EUlvE_EEvS8_>
    ba10:	e320f000 	nop	{0}
    ba14:	e24bd004 	sub	sp, fp, #4
    ba18:	e8bd8800 	pop	{fp, pc}

0000ba1c <_ZN6UnrollILj34EE4callIZNK4GPIO12pull_up_downIA28_jEEv10PUD_STATUSRKT_EUlvE0_EEvS8_>:
    ba1c:	e92d4800 	push	{fp, lr}
    ba20:	e28db004 	add	fp, sp, #4
    ba24:	e24dd008 	sub	sp, sp, #8
    ba28:	e50b0008 	str	r0, [fp, #-8]
    ba2c:	e51b0008 	ldr	r0, [fp, #-8]
    ba30:	ebfff59a 	bl	90a0 <_ZZNK4GPIO12pull_up_downIA28_jEEv10PUD_STATUSRKT_ENKUlvE0_clEv>
    ba34:	e51b0008 	ldr	r0, [fp, #-8]
    ba38:	eb00000d 	bl	ba74 <_ZN6UnrollILj33EE4callIZNK4GPIO12pull_up_downIA28_jEEv10PUD_STATUSRKT_EUlvE0_EEvS8_>
    ba3c:	e320f000 	nop	{0}
    ba40:	e24bd004 	sub	sp, fp, #4
    ba44:	e8bd8800 	pop	{fp, pc}

0000ba48 <_ZN6UnrollILj33EE4callIZNK4GPIO12pull_up_downIA28_jEEv10PUD_STATUSRKT_EUlvE_EEvS8_>:
    ba48:	e92d4800 	push	{fp, lr}
    ba4c:	e28db004 	add	fp, sp, #4
    ba50:	e24dd008 	sub	sp, sp, #8
    ba54:	e50b0008 	str	r0, [fp, #-8]
    ba58:	e51b0008 	ldr	r0, [fp, #-8]
    ba5c:	ebfff581 	bl	9068 <_ZZNK4GPIO12pull_up_downIA28_jEEv10PUD_STATUSRKT_ENKUlvE_clEv>
    ba60:	e51b0008 	ldr	r0, [fp, #-8]
    ba64:	eb00000d 	bl	baa0 <_ZN6UnrollILj32EE4callIZNK4GPIO12pull_up_downIA28_jEEv10PUD_STATUSRKT_EUlvE_EEvS8_>
    ba68:	e320f000 	nop	{0}
    ba6c:	e24bd004 	sub	sp, fp, #4
    ba70:	e8bd8800 	pop	{fp, pc}

0000ba74 <_ZN6UnrollILj33EE4callIZNK4GPIO12pull_up_downIA28_jEEv10PUD_STATUSRKT_EUlvE0_EEvS8_>:
    ba74:	e92d4800 	push	{fp, lr}
    ba78:	e28db004 	add	fp, sp, #4
    ba7c:	e24dd008 	sub	sp, sp, #8
    ba80:	e50b0008 	str	r0, [fp, #-8]
    ba84:	e51b0008 	ldr	r0, [fp, #-8]
    ba88:	ebfff584 	bl	90a0 <_ZZNK4GPIO12pull_up_downIA28_jEEv10PUD_STATUSRKT_ENKUlvE0_clEv>
    ba8c:	e51b0008 	ldr	r0, [fp, #-8]
    ba90:	eb00000d 	bl	bacc <_ZN6UnrollILj32EE4callIZNK4GPIO12pull_up_downIA28_jEEv10PUD_STATUSRKT_EUlvE0_EEvS8_>
    ba94:	e320f000 	nop	{0}
    ba98:	e24bd004 	sub	sp, fp, #4
    ba9c:	e8bd8800 	pop	{fp, pc}

0000baa0 <_ZN6UnrollILj32EE4callIZNK4GPIO12pull_up_downIA28_jEEv10PUD_STATUSRKT_EUlvE_EEvS8_>:
    baa0:	e92d4800 	push	{fp, lr}
    baa4:	e28db004 	add	fp, sp, #4
    baa8:	e24dd008 	sub	sp, sp, #8
    baac:	e50b0008 	str	r0, [fp, #-8]
    bab0:	e51b0008 	ldr	r0, [fp, #-8]
    bab4:	ebfff56b 	bl	9068 <_ZZNK4GPIO12pull_up_downIA28_jEEv10PUD_STATUSRKT_ENKUlvE_clEv>
    bab8:	e51b0008 	ldr	r0, [fp, #-8]
    babc:	eb00000d 	bl	baf8 <_ZN6UnrollILj31EE4callIZNK4GPIO12pull_up_downIA28_jEEv10PUD_STATUSRKT_EUlvE_EEvS8_>
    bac0:	e320f000 	nop	{0}
    bac4:	e24bd004 	sub	sp, fp, #4
    bac8:	e8bd8800 	pop	{fp, pc}

0000bacc <_ZN6UnrollILj32EE4callIZNK4GPIO12pull_up_downIA28_jEEv10PUD_STATUSRKT_EUlvE0_EEvS8_>:
    bacc:	e92d4800 	push	{fp, lr}
    bad0:	e28db004 	add	fp, sp, #4
    bad4:	e24dd008 	sub	sp, sp, #8
    bad8:	e50b0008 	str	r0, [fp, #-8]
    badc:	e51b0008 	ldr	r0, [fp, #-8]
    bae0:	ebfff56e 	bl	90a0 <_ZZNK4GPIO12pull_up_downIA28_jEEv10PUD_STATUSRKT_ENKUlvE0_clEv>
    bae4:	e51b0008 	ldr	r0, [fp, #-8]
    bae8:	eb00000d 	bl	bb24 <_ZN6UnrollILj31EE4callIZNK4GPIO12pull_up_downIA28_jEEv10PUD_STATUSRKT_EUlvE0_EEvS8_>
    baec:	e320f000 	nop	{0}
    baf0:	e24bd004 	sub	sp, fp, #4
    baf4:	e8bd8800 	pop	{fp, pc}

0000baf8 <_ZN6UnrollILj31EE4callIZNK4GPIO12pull_up_downIA28_jEEv10PUD_STATUSRKT_EUlvE_EEvS8_>:
    baf8:	e92d4800 	push	{fp, lr}
    bafc:	e28db004 	add	fp, sp, #4
    bb00:	e24dd008 	sub	sp, sp, #8
    bb04:	e50b0008 	str	r0, [fp, #-8]
    bb08:	e51b0008 	ldr	r0, [fp, #-8]
    bb0c:	ebfff555 	bl	9068 <_ZZNK4GPIO12pull_up_downIA28_jEEv10PUD_STATUSRKT_ENKUlvE_clEv>
    bb10:	e51b0008 	ldr	r0, [fp, #-8]
    bb14:	eb00000d 	bl	bb50 <_ZN6UnrollILj30EE4callIZNK4GPIO12pull_up_downIA28_jEEv10PUD_STATUSRKT_EUlvE_EEvS8_>
    bb18:	e320f000 	nop	{0}
    bb1c:	e24bd004 	sub	sp, fp, #4
    bb20:	e8bd8800 	pop	{fp, pc}

0000bb24 <_ZN6UnrollILj31EE4callIZNK4GPIO12pull_up_downIA28_jEEv10PUD_STATUSRKT_EUlvE0_EEvS8_>:
    bb24:	e92d4800 	push	{fp, lr}
    bb28:	e28db004 	add	fp, sp, #4
    bb2c:	e24dd008 	sub	sp, sp, #8
    bb30:	e50b0008 	str	r0, [fp, #-8]
    bb34:	e51b0008 	ldr	r0, [fp, #-8]
    bb38:	ebfff558 	bl	90a0 <_ZZNK4GPIO12pull_up_downIA28_jEEv10PUD_STATUSRKT_ENKUlvE0_clEv>
    bb3c:	e51b0008 	ldr	r0, [fp, #-8]
    bb40:	eb00000d 	bl	bb7c <_ZN6UnrollILj30EE4callIZNK4GPIO12pull_up_downIA28_jEEv10PUD_STATUSRKT_EUlvE0_EEvS8_>
    bb44:	e320f000 	nop	{0}
    bb48:	e24bd004 	sub	sp, fp, #4
    bb4c:	e8bd8800 	pop	{fp, pc}

0000bb50 <_ZN6UnrollILj30EE4callIZNK4GPIO12pull_up_downIA28_jEEv10PUD_STATUSRKT_EUlvE_EEvS8_>:
    bb50:	e92d4800 	push	{fp, lr}
    bb54:	e28db004 	add	fp, sp, #4
    bb58:	e24dd008 	sub	sp, sp, #8
    bb5c:	e50b0008 	str	r0, [fp, #-8]
    bb60:	e51b0008 	ldr	r0, [fp, #-8]
    bb64:	ebfff53f 	bl	9068 <_ZZNK4GPIO12pull_up_downIA28_jEEv10PUD_STATUSRKT_ENKUlvE_clEv>
    bb68:	e51b0008 	ldr	r0, [fp, #-8]
    bb6c:	eb00000d 	bl	bba8 <_ZN6UnrollILj29EE4callIZNK4GPIO12pull_up_downIA28_jEEv10PUD_STATUSRKT_EUlvE_EEvS8_>
    bb70:	e320f000 	nop	{0}
    bb74:	e24bd004 	sub	sp, fp, #4
    bb78:	e8bd8800 	pop	{fp, pc}

0000bb7c <_ZN6UnrollILj30EE4callIZNK4GPIO12pull_up_downIA28_jEEv10PUD_STATUSRKT_EUlvE0_EEvS8_>:
    bb7c:	e92d4800 	push	{fp, lr}
    bb80:	e28db004 	add	fp, sp, #4
    bb84:	e24dd008 	sub	sp, sp, #8
    bb88:	e50b0008 	str	r0, [fp, #-8]
    bb8c:	e51b0008 	ldr	r0, [fp, #-8]
    bb90:	ebfff542 	bl	90a0 <_ZZNK4GPIO12pull_up_downIA28_jEEv10PUD_STATUSRKT_ENKUlvE0_clEv>
    bb94:	e51b0008 	ldr	r0, [fp, #-8]
    bb98:	eb00000d 	bl	bbd4 <_ZN6UnrollILj29EE4callIZNK4GPIO12pull_up_downIA28_jEEv10PUD_STATUSRKT_EUlvE0_EEvS8_>
    bb9c:	e320f000 	nop	{0}
    bba0:	e24bd004 	sub	sp, fp, #4
    bba4:	e8bd8800 	pop	{fp, pc}

0000bba8 <_ZN6UnrollILj29EE4callIZNK4GPIO12pull_up_downIA28_jEEv10PUD_STATUSRKT_EUlvE_EEvS8_>:
    bba8:	e92d4800 	push	{fp, lr}
    bbac:	e28db004 	add	fp, sp, #4
    bbb0:	e24dd008 	sub	sp, sp, #8
    bbb4:	e50b0008 	str	r0, [fp, #-8]
    bbb8:	e51b0008 	ldr	r0, [fp, #-8]
    bbbc:	ebfff529 	bl	9068 <_ZZNK4GPIO12pull_up_downIA28_jEEv10PUD_STATUSRKT_ENKUlvE_clEv>
    bbc0:	e51b0008 	ldr	r0, [fp, #-8]
    bbc4:	eb00000d 	bl	bc00 <_ZN6UnrollILj28EE4callIZNK4GPIO12pull_up_downIA28_jEEv10PUD_STATUSRKT_EUlvE_EEvS8_>
    bbc8:	e320f000 	nop	{0}
    bbcc:	e24bd004 	sub	sp, fp, #4
    bbd0:	e8bd8800 	pop	{fp, pc}

0000bbd4 <_ZN6UnrollILj29EE4callIZNK4GPIO12pull_up_downIA28_jEEv10PUD_STATUSRKT_EUlvE0_EEvS8_>:
    bbd4:	e92d4800 	push	{fp, lr}
    bbd8:	e28db004 	add	fp, sp, #4
    bbdc:	e24dd008 	sub	sp, sp, #8
    bbe0:	e50b0008 	str	r0, [fp, #-8]
    bbe4:	e51b0008 	ldr	r0, [fp, #-8]
    bbe8:	ebfff52c 	bl	90a0 <_ZZNK4GPIO12pull_up_downIA28_jEEv10PUD_STATUSRKT_ENKUlvE0_clEv>
    bbec:	e51b0008 	ldr	r0, [fp, #-8]
    bbf0:	eb00000d 	bl	bc2c <_ZN6UnrollILj28EE4callIZNK4GPIO12pull_up_downIA28_jEEv10PUD_STATUSRKT_EUlvE0_EEvS8_>
    bbf4:	e320f000 	nop	{0}
    bbf8:	e24bd004 	sub	sp, fp, #4
    bbfc:	e8bd8800 	pop	{fp, pc}

0000bc00 <_ZN6UnrollILj28EE4callIZNK4GPIO12pull_up_downIA28_jEEv10PUD_STATUSRKT_EUlvE_EEvS8_>:
    bc00:	e92d4800 	push	{fp, lr}
    bc04:	e28db004 	add	fp, sp, #4
    bc08:	e24dd008 	sub	sp, sp, #8
    bc0c:	e50b0008 	str	r0, [fp, #-8]
    bc10:	e51b0008 	ldr	r0, [fp, #-8]
    bc14:	ebfff513 	bl	9068 <_ZZNK4GPIO12pull_up_downIA28_jEEv10PUD_STATUSRKT_ENKUlvE_clEv>
    bc18:	e51b0008 	ldr	r0, [fp, #-8]
    bc1c:	eb00000d 	bl	bc58 <_ZN6UnrollILj27EE4callIZNK4GPIO12pull_up_downIA28_jEEv10PUD_STATUSRKT_EUlvE_EEvS8_>
    bc20:	e320f000 	nop	{0}
    bc24:	e24bd004 	sub	sp, fp, #4
    bc28:	e8bd8800 	pop	{fp, pc}

0000bc2c <_ZN6UnrollILj28EE4callIZNK4GPIO12pull_up_downIA28_jEEv10PUD_STATUSRKT_EUlvE0_EEvS8_>:
    bc2c:	e92d4800 	push	{fp, lr}
    bc30:	e28db004 	add	fp, sp, #4
    bc34:	e24dd008 	sub	sp, sp, #8
    bc38:	e50b0008 	str	r0, [fp, #-8]
    bc3c:	e51b0008 	ldr	r0, [fp, #-8]
    bc40:	ebfff516 	bl	90a0 <_ZZNK4GPIO12pull_up_downIA28_jEEv10PUD_STATUSRKT_ENKUlvE0_clEv>
    bc44:	e51b0008 	ldr	r0, [fp, #-8]
    bc48:	eb00000d 	bl	bc84 <_ZN6UnrollILj27EE4callIZNK4GPIO12pull_up_downIA28_jEEv10PUD_STATUSRKT_EUlvE0_EEvS8_>
    bc4c:	e320f000 	nop	{0}
    bc50:	e24bd004 	sub	sp, fp, #4
    bc54:	e8bd8800 	pop	{fp, pc}

0000bc58 <_ZN6UnrollILj27EE4callIZNK4GPIO12pull_up_downIA28_jEEv10PUD_STATUSRKT_EUlvE_EEvS8_>:
    bc58:	e92d4800 	push	{fp, lr}
    bc5c:	e28db004 	add	fp, sp, #4
    bc60:	e24dd008 	sub	sp, sp, #8
    bc64:	e50b0008 	str	r0, [fp, #-8]
    bc68:	e51b0008 	ldr	r0, [fp, #-8]
    bc6c:	ebfff4fd 	bl	9068 <_ZZNK4GPIO12pull_up_downIA28_jEEv10PUD_STATUSRKT_ENKUlvE_clEv>
    bc70:	e51b0008 	ldr	r0, [fp, #-8]
    bc74:	eb00000d 	bl	bcb0 <_ZN6UnrollILj26EE4callIZNK4GPIO12pull_up_downIA28_jEEv10PUD_STATUSRKT_EUlvE_EEvS8_>
    bc78:	e320f000 	nop	{0}
    bc7c:	e24bd004 	sub	sp, fp, #4
    bc80:	e8bd8800 	pop	{fp, pc}

0000bc84 <_ZN6UnrollILj27EE4callIZNK4GPIO12pull_up_downIA28_jEEv10PUD_STATUSRKT_EUlvE0_EEvS8_>:
    bc84:	e92d4800 	push	{fp, lr}
    bc88:	e28db004 	add	fp, sp, #4
    bc8c:	e24dd008 	sub	sp, sp, #8
    bc90:	e50b0008 	str	r0, [fp, #-8]
    bc94:	e51b0008 	ldr	r0, [fp, #-8]
    bc98:	ebfff500 	bl	90a0 <_ZZNK4GPIO12pull_up_downIA28_jEEv10PUD_STATUSRKT_ENKUlvE0_clEv>
    bc9c:	e51b0008 	ldr	r0, [fp, #-8]
    bca0:	eb00000d 	bl	bcdc <_ZN6UnrollILj26EE4callIZNK4GPIO12pull_up_downIA28_jEEv10PUD_STATUSRKT_EUlvE0_EEvS8_>
    bca4:	e320f000 	nop	{0}
    bca8:	e24bd004 	sub	sp, fp, #4
    bcac:	e8bd8800 	pop	{fp, pc}

0000bcb0 <_ZN6UnrollILj26EE4callIZNK4GPIO12pull_up_downIA28_jEEv10PUD_STATUSRKT_EUlvE_EEvS8_>:
    bcb0:	e92d4800 	push	{fp, lr}
    bcb4:	e28db004 	add	fp, sp, #4
    bcb8:	e24dd008 	sub	sp, sp, #8
    bcbc:	e50b0008 	str	r0, [fp, #-8]
    bcc0:	e51b0008 	ldr	r0, [fp, #-8]
    bcc4:	ebfff4e7 	bl	9068 <_ZZNK4GPIO12pull_up_downIA28_jEEv10PUD_STATUSRKT_ENKUlvE_clEv>
    bcc8:	e51b0008 	ldr	r0, [fp, #-8]
    bccc:	eb00000d 	bl	bd08 <_ZN6UnrollILj25EE4callIZNK4GPIO12pull_up_downIA28_jEEv10PUD_STATUSRKT_EUlvE_EEvS8_>
    bcd0:	e320f000 	nop	{0}
    bcd4:	e24bd004 	sub	sp, fp, #4
    bcd8:	e8bd8800 	pop	{fp, pc}

0000bcdc <_ZN6UnrollILj26EE4callIZNK4GPIO12pull_up_downIA28_jEEv10PUD_STATUSRKT_EUlvE0_EEvS8_>:
    bcdc:	e92d4800 	push	{fp, lr}
    bce0:	e28db004 	add	fp, sp, #4
    bce4:	e24dd008 	sub	sp, sp, #8
    bce8:	e50b0008 	str	r0, [fp, #-8]
    bcec:	e51b0008 	ldr	r0, [fp, #-8]
    bcf0:	ebfff4ea 	bl	90a0 <_ZZNK4GPIO12pull_up_downIA28_jEEv10PUD_STATUSRKT_ENKUlvE0_clEv>
    bcf4:	e51b0008 	ldr	r0, [fp, #-8]
    bcf8:	eb00000d 	bl	bd34 <_ZN6UnrollILj25EE4callIZNK4GPIO12pull_up_downIA28_jEEv10PUD_STATUSRKT_EUlvE0_EEvS8_>
    bcfc:	e320f000 	nop	{0}
    bd00:	e24bd004 	sub	sp, fp, #4
    bd04:	e8bd8800 	pop	{fp, pc}

0000bd08 <_ZN6UnrollILj25EE4callIZNK4GPIO12pull_up_downIA28_jEEv10PUD_STATUSRKT_EUlvE_EEvS8_>:
    bd08:	e92d4800 	push	{fp, lr}
    bd0c:	e28db004 	add	fp, sp, #4
    bd10:	e24dd008 	sub	sp, sp, #8
    bd14:	e50b0008 	str	r0, [fp, #-8]
    bd18:	e51b0008 	ldr	r0, [fp, #-8]
    bd1c:	ebfff4d1 	bl	9068 <_ZZNK4GPIO12pull_up_downIA28_jEEv10PUD_STATUSRKT_ENKUlvE_clEv>
    bd20:	e51b0008 	ldr	r0, [fp, #-8]
    bd24:	eb00000d 	bl	bd60 <_ZN6UnrollILj24EE4callIZNK4GPIO12pull_up_downIA28_jEEv10PUD_STATUSRKT_EUlvE_EEvS8_>
    bd28:	e320f000 	nop	{0}
    bd2c:	e24bd004 	sub	sp, fp, #4
    bd30:	e8bd8800 	pop	{fp, pc}

0000bd34 <_ZN6UnrollILj25EE4callIZNK4GPIO12pull_up_downIA28_jEEv10PUD_STATUSRKT_EUlvE0_EEvS8_>:
    bd34:	e92d4800 	push	{fp, lr}
    bd38:	e28db004 	add	fp, sp, #4
    bd3c:	e24dd008 	sub	sp, sp, #8
    bd40:	e50b0008 	str	r0, [fp, #-8]
    bd44:	e51b0008 	ldr	r0, [fp, #-8]
    bd48:	ebfff4d4 	bl	90a0 <_ZZNK4GPIO12pull_up_downIA28_jEEv10PUD_STATUSRKT_ENKUlvE0_clEv>
    bd4c:	e51b0008 	ldr	r0, [fp, #-8]
    bd50:	eb00000d 	bl	bd8c <_ZN6UnrollILj24EE4callIZNK4GPIO12pull_up_downIA28_jEEv10PUD_STATUSRKT_EUlvE0_EEvS8_>
    bd54:	e320f000 	nop	{0}
    bd58:	e24bd004 	sub	sp, fp, #4
    bd5c:	e8bd8800 	pop	{fp, pc}

0000bd60 <_ZN6UnrollILj24EE4callIZNK4GPIO12pull_up_downIA28_jEEv10PUD_STATUSRKT_EUlvE_EEvS8_>:
    bd60:	e92d4800 	push	{fp, lr}
    bd64:	e28db004 	add	fp, sp, #4
    bd68:	e24dd008 	sub	sp, sp, #8
    bd6c:	e50b0008 	str	r0, [fp, #-8]
    bd70:	e51b0008 	ldr	r0, [fp, #-8]
    bd74:	ebfff4bb 	bl	9068 <_ZZNK4GPIO12pull_up_downIA28_jEEv10PUD_STATUSRKT_ENKUlvE_clEv>
    bd78:	e51b0008 	ldr	r0, [fp, #-8]
    bd7c:	eb00000d 	bl	bdb8 <_ZN6UnrollILj23EE4callIZNK4GPIO12pull_up_downIA28_jEEv10PUD_STATUSRKT_EUlvE_EEvS8_>
    bd80:	e320f000 	nop	{0}
    bd84:	e24bd004 	sub	sp, fp, #4
    bd88:	e8bd8800 	pop	{fp, pc}

0000bd8c <_ZN6UnrollILj24EE4callIZNK4GPIO12pull_up_downIA28_jEEv10PUD_STATUSRKT_EUlvE0_EEvS8_>:
    bd8c:	e92d4800 	push	{fp, lr}
    bd90:	e28db004 	add	fp, sp, #4
    bd94:	e24dd008 	sub	sp, sp, #8
    bd98:	e50b0008 	str	r0, [fp, #-8]
    bd9c:	e51b0008 	ldr	r0, [fp, #-8]
    bda0:	ebfff4be 	bl	90a0 <_ZZNK4GPIO12pull_up_downIA28_jEEv10PUD_STATUSRKT_ENKUlvE0_clEv>
    bda4:	e51b0008 	ldr	r0, [fp, #-8]
    bda8:	eb00000d 	bl	bde4 <_ZN6UnrollILj23EE4callIZNK4GPIO12pull_up_downIA28_jEEv10PUD_STATUSRKT_EUlvE0_EEvS8_>
    bdac:	e320f000 	nop	{0}
    bdb0:	e24bd004 	sub	sp, fp, #4
    bdb4:	e8bd8800 	pop	{fp, pc}

0000bdb8 <_ZN6UnrollILj23EE4callIZNK4GPIO12pull_up_downIA28_jEEv10PUD_STATUSRKT_EUlvE_EEvS8_>:
    bdb8:	e92d4800 	push	{fp, lr}
    bdbc:	e28db004 	add	fp, sp, #4
    bdc0:	e24dd008 	sub	sp, sp, #8
    bdc4:	e50b0008 	str	r0, [fp, #-8]
    bdc8:	e51b0008 	ldr	r0, [fp, #-8]
    bdcc:	ebfff4a5 	bl	9068 <_ZZNK4GPIO12pull_up_downIA28_jEEv10PUD_STATUSRKT_ENKUlvE_clEv>
    bdd0:	e51b0008 	ldr	r0, [fp, #-8]
    bdd4:	eb00000d 	bl	be10 <_ZN6UnrollILj22EE4callIZNK4GPIO12pull_up_downIA28_jEEv10PUD_STATUSRKT_EUlvE_EEvS8_>
    bdd8:	e320f000 	nop	{0}
    bddc:	e24bd004 	sub	sp, fp, #4
    bde0:	e8bd8800 	pop	{fp, pc}

0000bde4 <_ZN6UnrollILj23EE4callIZNK4GPIO12pull_up_downIA28_jEEv10PUD_STATUSRKT_EUlvE0_EEvS8_>:
    bde4:	e92d4800 	push	{fp, lr}
    bde8:	e28db004 	add	fp, sp, #4
    bdec:	e24dd008 	sub	sp, sp, #8
    bdf0:	e50b0008 	str	r0, [fp, #-8]
    bdf4:	e51b0008 	ldr	r0, [fp, #-8]
    bdf8:	ebfff4a8 	bl	90a0 <_ZZNK4GPIO12pull_up_downIA28_jEEv10PUD_STATUSRKT_ENKUlvE0_clEv>
    bdfc:	e51b0008 	ldr	r0, [fp, #-8]
    be00:	eb00000d 	bl	be3c <_ZN6UnrollILj22EE4callIZNK4GPIO12pull_up_downIA28_jEEv10PUD_STATUSRKT_EUlvE0_EEvS8_>
    be04:	e320f000 	nop	{0}
    be08:	e24bd004 	sub	sp, fp, #4
    be0c:	e8bd8800 	pop	{fp, pc}

0000be10 <_ZN6UnrollILj22EE4callIZNK4GPIO12pull_up_downIA28_jEEv10PUD_STATUSRKT_EUlvE_EEvS8_>:
    be10:	e92d4800 	push	{fp, lr}
    be14:	e28db004 	add	fp, sp, #4
    be18:	e24dd008 	sub	sp, sp, #8
    be1c:	e50b0008 	str	r0, [fp, #-8]
    be20:	e51b0008 	ldr	r0, [fp, #-8]
    be24:	ebfff48f 	bl	9068 <_ZZNK4GPIO12pull_up_downIA28_jEEv10PUD_STATUSRKT_ENKUlvE_clEv>
    be28:	e51b0008 	ldr	r0, [fp, #-8]
    be2c:	eb00000d 	bl	be68 <_ZN6UnrollILj21EE4callIZNK4GPIO12pull_up_downIA28_jEEv10PUD_STATUSRKT_EUlvE_EEvS8_>
    be30:	e320f000 	nop	{0}
    be34:	e24bd004 	sub	sp, fp, #4
    be38:	e8bd8800 	pop	{fp, pc}

0000be3c <_ZN6UnrollILj22EE4callIZNK4GPIO12pull_up_downIA28_jEEv10PUD_STATUSRKT_EUlvE0_EEvS8_>:
    be3c:	e92d4800 	push	{fp, lr}
    be40:	e28db004 	add	fp, sp, #4
    be44:	e24dd008 	sub	sp, sp, #8
    be48:	e50b0008 	str	r0, [fp, #-8]
    be4c:	e51b0008 	ldr	r0, [fp, #-8]
    be50:	ebfff492 	bl	90a0 <_ZZNK4GPIO12pull_up_downIA28_jEEv10PUD_STATUSRKT_ENKUlvE0_clEv>
    be54:	e51b0008 	ldr	r0, [fp, #-8]
    be58:	eb00000d 	bl	be94 <_ZN6UnrollILj21EE4callIZNK4GPIO12pull_up_downIA28_jEEv10PUD_STATUSRKT_EUlvE0_EEvS8_>
    be5c:	e320f000 	nop	{0}
    be60:	e24bd004 	sub	sp, fp, #4
    be64:	e8bd8800 	pop	{fp, pc}

0000be68 <_ZN6UnrollILj21EE4callIZNK4GPIO12pull_up_downIA28_jEEv10PUD_STATUSRKT_EUlvE_EEvS8_>:
    be68:	e92d4800 	push	{fp, lr}
    be6c:	e28db004 	add	fp, sp, #4
    be70:	e24dd008 	sub	sp, sp, #8
    be74:	e50b0008 	str	r0, [fp, #-8]
    be78:	e51b0008 	ldr	r0, [fp, #-8]
    be7c:	ebfff479 	bl	9068 <_ZZNK4GPIO12pull_up_downIA28_jEEv10PUD_STATUSRKT_ENKUlvE_clEv>
    be80:	e51b0008 	ldr	r0, [fp, #-8]
    be84:	eb00000d 	bl	bec0 <_ZN6UnrollILj20EE4callIZNK4GPIO12pull_up_downIA28_jEEv10PUD_STATUSRKT_EUlvE_EEvS8_>
    be88:	e320f000 	nop	{0}
    be8c:	e24bd004 	sub	sp, fp, #4
    be90:	e8bd8800 	pop	{fp, pc}

0000be94 <_ZN6UnrollILj21EE4callIZNK4GPIO12pull_up_downIA28_jEEv10PUD_STATUSRKT_EUlvE0_EEvS8_>:
    be94:	e92d4800 	push	{fp, lr}
    be98:	e28db004 	add	fp, sp, #4
    be9c:	e24dd008 	sub	sp, sp, #8
    bea0:	e50b0008 	str	r0, [fp, #-8]
    bea4:	e51b0008 	ldr	r0, [fp, #-8]
    bea8:	ebfff47c 	bl	90a0 <_ZZNK4GPIO12pull_up_downIA28_jEEv10PUD_STATUSRKT_ENKUlvE0_clEv>
    beac:	e51b0008 	ldr	r0, [fp, #-8]
    beb0:	eb00000d 	bl	beec <_ZN6UnrollILj20EE4callIZNK4GPIO12pull_up_downIA28_jEEv10PUD_STATUSRKT_EUlvE0_EEvS8_>
    beb4:	e320f000 	nop	{0}
    beb8:	e24bd004 	sub	sp, fp, #4
    bebc:	e8bd8800 	pop	{fp, pc}

0000bec0 <_ZN6UnrollILj20EE4callIZNK4GPIO12pull_up_downIA28_jEEv10PUD_STATUSRKT_EUlvE_EEvS8_>:
    bec0:	e92d4800 	push	{fp, lr}
    bec4:	e28db004 	add	fp, sp, #4
    bec8:	e24dd008 	sub	sp, sp, #8
    becc:	e50b0008 	str	r0, [fp, #-8]
    bed0:	e51b0008 	ldr	r0, [fp, #-8]
    bed4:	ebfff463 	bl	9068 <_ZZNK4GPIO12pull_up_downIA28_jEEv10PUD_STATUSRKT_ENKUlvE_clEv>
    bed8:	e51b0008 	ldr	r0, [fp, #-8]
    bedc:	eb00000d 	bl	bf18 <_ZN6UnrollILj19EE4callIZNK4GPIO12pull_up_downIA28_jEEv10PUD_STATUSRKT_EUlvE_EEvS8_>
    bee0:	e320f000 	nop	{0}
    bee4:	e24bd004 	sub	sp, fp, #4
    bee8:	e8bd8800 	pop	{fp, pc}

0000beec <_ZN6UnrollILj20EE4callIZNK4GPIO12pull_up_downIA28_jEEv10PUD_STATUSRKT_EUlvE0_EEvS8_>:
    beec:	e92d4800 	push	{fp, lr}
    bef0:	e28db004 	add	fp, sp, #4
    bef4:	e24dd008 	sub	sp, sp, #8
    bef8:	e50b0008 	str	r0, [fp, #-8]
    befc:	e51b0008 	ldr	r0, [fp, #-8]
    bf00:	ebfff466 	bl	90a0 <_ZZNK4GPIO12pull_up_downIA28_jEEv10PUD_STATUSRKT_ENKUlvE0_clEv>
    bf04:	e51b0008 	ldr	r0, [fp, #-8]
    bf08:	eb00000d 	bl	bf44 <_ZN6UnrollILj19EE4callIZNK4GPIO12pull_up_downIA28_jEEv10PUD_STATUSRKT_EUlvE0_EEvS8_>
    bf0c:	e320f000 	nop	{0}
    bf10:	e24bd004 	sub	sp, fp, #4
    bf14:	e8bd8800 	pop	{fp, pc}

0000bf18 <_ZN6UnrollILj19EE4callIZNK4GPIO12pull_up_downIA28_jEEv10PUD_STATUSRKT_EUlvE_EEvS8_>:
    bf18:	e92d4800 	push	{fp, lr}
    bf1c:	e28db004 	add	fp, sp, #4
    bf20:	e24dd008 	sub	sp, sp, #8
    bf24:	e50b0008 	str	r0, [fp, #-8]
    bf28:	e51b0008 	ldr	r0, [fp, #-8]
    bf2c:	ebfff44d 	bl	9068 <_ZZNK4GPIO12pull_up_downIA28_jEEv10PUD_STATUSRKT_ENKUlvE_clEv>
    bf30:	e51b0008 	ldr	r0, [fp, #-8]
    bf34:	eb00000d 	bl	bf70 <_ZN6UnrollILj18EE4callIZNK4GPIO12pull_up_downIA28_jEEv10PUD_STATUSRKT_EUlvE_EEvS8_>
    bf38:	e320f000 	nop	{0}
    bf3c:	e24bd004 	sub	sp, fp, #4
    bf40:	e8bd8800 	pop	{fp, pc}

0000bf44 <_ZN6UnrollILj19EE4callIZNK4GPIO12pull_up_downIA28_jEEv10PUD_STATUSRKT_EUlvE0_EEvS8_>:
    bf44:	e92d4800 	push	{fp, lr}
    bf48:	e28db004 	add	fp, sp, #4
    bf4c:	e24dd008 	sub	sp, sp, #8
    bf50:	e50b0008 	str	r0, [fp, #-8]
    bf54:	e51b0008 	ldr	r0, [fp, #-8]
    bf58:	ebfff450 	bl	90a0 <_ZZNK4GPIO12pull_up_downIA28_jEEv10PUD_STATUSRKT_ENKUlvE0_clEv>
    bf5c:	e51b0008 	ldr	r0, [fp, #-8]
    bf60:	eb00000d 	bl	bf9c <_ZN6UnrollILj18EE4callIZNK4GPIO12pull_up_downIA28_jEEv10PUD_STATUSRKT_EUlvE0_EEvS8_>
    bf64:	e320f000 	nop	{0}
    bf68:	e24bd004 	sub	sp, fp, #4
    bf6c:	e8bd8800 	pop	{fp, pc}

0000bf70 <_ZN6UnrollILj18EE4callIZNK4GPIO12pull_up_downIA28_jEEv10PUD_STATUSRKT_EUlvE_EEvS8_>:
    bf70:	e92d4800 	push	{fp, lr}
    bf74:	e28db004 	add	fp, sp, #4
    bf78:	e24dd008 	sub	sp, sp, #8
    bf7c:	e50b0008 	str	r0, [fp, #-8]
    bf80:	e51b0008 	ldr	r0, [fp, #-8]
    bf84:	ebfff437 	bl	9068 <_ZZNK4GPIO12pull_up_downIA28_jEEv10PUD_STATUSRKT_ENKUlvE_clEv>
    bf88:	e51b0008 	ldr	r0, [fp, #-8]
    bf8c:	eb00000d 	bl	bfc8 <_ZN6UnrollILj17EE4callIZNK4GPIO12pull_up_downIA28_jEEv10PUD_STATUSRKT_EUlvE_EEvS8_>
    bf90:	e320f000 	nop	{0}
    bf94:	e24bd004 	sub	sp, fp, #4
    bf98:	e8bd8800 	pop	{fp, pc}

0000bf9c <_ZN6UnrollILj18EE4callIZNK4GPIO12pull_up_downIA28_jEEv10PUD_STATUSRKT_EUlvE0_EEvS8_>:
    bf9c:	e92d4800 	push	{fp, lr}
    bfa0:	e28db004 	add	fp, sp, #4
    bfa4:	e24dd008 	sub	sp, sp, #8
    bfa8:	e50b0008 	str	r0, [fp, #-8]
    bfac:	e51b0008 	ldr	r0, [fp, #-8]
    bfb0:	ebfff43a 	bl	90a0 <_ZZNK4GPIO12pull_up_downIA28_jEEv10PUD_STATUSRKT_ENKUlvE0_clEv>
    bfb4:	e51b0008 	ldr	r0, [fp, #-8]
    bfb8:	eb00000d 	bl	bff4 <_ZN6UnrollILj17EE4callIZNK4GPIO12pull_up_downIA28_jEEv10PUD_STATUSRKT_EUlvE0_EEvS8_>
    bfbc:	e320f000 	nop	{0}
    bfc0:	e24bd004 	sub	sp, fp, #4
    bfc4:	e8bd8800 	pop	{fp, pc}

0000bfc8 <_ZN6UnrollILj17EE4callIZNK4GPIO12pull_up_downIA28_jEEv10PUD_STATUSRKT_EUlvE_EEvS8_>:
    bfc8:	e92d4800 	push	{fp, lr}
    bfcc:	e28db004 	add	fp, sp, #4
    bfd0:	e24dd008 	sub	sp, sp, #8
    bfd4:	e50b0008 	str	r0, [fp, #-8]
    bfd8:	e51b0008 	ldr	r0, [fp, #-8]
    bfdc:	ebfff421 	bl	9068 <_ZZNK4GPIO12pull_up_downIA28_jEEv10PUD_STATUSRKT_ENKUlvE_clEv>
    bfe0:	e51b0008 	ldr	r0, [fp, #-8]
    bfe4:	eb00000d 	bl	c020 <_ZN6UnrollILj16EE4callIZNK4GPIO12pull_up_downIA28_jEEv10PUD_STATUSRKT_EUlvE_EEvS8_>
    bfe8:	e320f000 	nop	{0}
    bfec:	e24bd004 	sub	sp, fp, #4
    bff0:	e8bd8800 	pop	{fp, pc}

0000bff4 <_ZN6UnrollILj17EE4callIZNK4GPIO12pull_up_downIA28_jEEv10PUD_STATUSRKT_EUlvE0_EEvS8_>:
    bff4:	e92d4800 	push	{fp, lr}
    bff8:	e28db004 	add	fp, sp, #4
    bffc:	e24dd008 	sub	sp, sp, #8
    c000:	e50b0008 	str	r0, [fp, #-8]
    c004:	e51b0008 	ldr	r0, [fp, #-8]
    c008:	ebfff424 	bl	90a0 <_ZZNK4GPIO12pull_up_downIA28_jEEv10PUD_STATUSRKT_ENKUlvE0_clEv>
    c00c:	e51b0008 	ldr	r0, [fp, #-8]
    c010:	eb00000d 	bl	c04c <_ZN6UnrollILj16EE4callIZNK4GPIO12pull_up_downIA28_jEEv10PUD_STATUSRKT_EUlvE0_EEvS8_>
    c014:	e320f000 	nop	{0}
    c018:	e24bd004 	sub	sp, fp, #4
    c01c:	e8bd8800 	pop	{fp, pc}

0000c020 <_ZN6UnrollILj16EE4callIZNK4GPIO12pull_up_downIA28_jEEv10PUD_STATUSRKT_EUlvE_EEvS8_>:
    c020:	e92d4800 	push	{fp, lr}
    c024:	e28db004 	add	fp, sp, #4
    c028:	e24dd008 	sub	sp, sp, #8
    c02c:	e50b0008 	str	r0, [fp, #-8]
    c030:	e51b0008 	ldr	r0, [fp, #-8]
    c034:	ebfff40b 	bl	9068 <_ZZNK4GPIO12pull_up_downIA28_jEEv10PUD_STATUSRKT_ENKUlvE_clEv>
    c038:	e51b0008 	ldr	r0, [fp, #-8]
    c03c:	eb00000d 	bl	c078 <_ZN6UnrollILj15EE4callIZNK4GPIO12pull_up_downIA28_jEEv10PUD_STATUSRKT_EUlvE_EEvS8_>
    c040:	e320f000 	nop	{0}
    c044:	e24bd004 	sub	sp, fp, #4
    c048:	e8bd8800 	pop	{fp, pc}

0000c04c <_ZN6UnrollILj16EE4callIZNK4GPIO12pull_up_downIA28_jEEv10PUD_STATUSRKT_EUlvE0_EEvS8_>:
    c04c:	e92d4800 	push	{fp, lr}
    c050:	e28db004 	add	fp, sp, #4
    c054:	e24dd008 	sub	sp, sp, #8
    c058:	e50b0008 	str	r0, [fp, #-8]
    c05c:	e51b0008 	ldr	r0, [fp, #-8]
    c060:	ebfff40e 	bl	90a0 <_ZZNK4GPIO12pull_up_downIA28_jEEv10PUD_STATUSRKT_ENKUlvE0_clEv>
    c064:	e51b0008 	ldr	r0, [fp, #-8]
    c068:	eb00000d 	bl	c0a4 <_ZN6UnrollILj15EE4callIZNK4GPIO12pull_up_downIA28_jEEv10PUD_STATUSRKT_EUlvE0_EEvS8_>
    c06c:	e320f000 	nop	{0}
    c070:	e24bd004 	sub	sp, fp, #4
    c074:	e8bd8800 	pop	{fp, pc}

0000c078 <_ZN6UnrollILj15EE4callIZNK4GPIO12pull_up_downIA28_jEEv10PUD_STATUSRKT_EUlvE_EEvS8_>:
    c078:	e92d4800 	push	{fp, lr}
    c07c:	e28db004 	add	fp, sp, #4
    c080:	e24dd008 	sub	sp, sp, #8
    c084:	e50b0008 	str	r0, [fp, #-8]
    c088:	e51b0008 	ldr	r0, [fp, #-8]
    c08c:	ebfff3f5 	bl	9068 <_ZZNK4GPIO12pull_up_downIA28_jEEv10PUD_STATUSRKT_ENKUlvE_clEv>
    c090:	e51b0008 	ldr	r0, [fp, #-8]
    c094:	eb00000d 	bl	c0d0 <_ZN6UnrollILj14EE4callIZNK4GPIO12pull_up_downIA28_jEEv10PUD_STATUSRKT_EUlvE_EEvS8_>
    c098:	e320f000 	nop	{0}
    c09c:	e24bd004 	sub	sp, fp, #4
    c0a0:	e8bd8800 	pop	{fp, pc}

0000c0a4 <_ZN6UnrollILj15EE4callIZNK4GPIO12pull_up_downIA28_jEEv10PUD_STATUSRKT_EUlvE0_EEvS8_>:
    c0a4:	e92d4800 	push	{fp, lr}
    c0a8:	e28db004 	add	fp, sp, #4
    c0ac:	e24dd008 	sub	sp, sp, #8
    c0b0:	e50b0008 	str	r0, [fp, #-8]
    c0b4:	e51b0008 	ldr	r0, [fp, #-8]
    c0b8:	ebfff3f8 	bl	90a0 <_ZZNK4GPIO12pull_up_downIA28_jEEv10PUD_STATUSRKT_ENKUlvE0_clEv>
    c0bc:	e51b0008 	ldr	r0, [fp, #-8]
    c0c0:	eb00000d 	bl	c0fc <_ZN6UnrollILj14EE4callIZNK4GPIO12pull_up_downIA28_jEEv10PUD_STATUSRKT_EUlvE0_EEvS8_>
    c0c4:	e320f000 	nop	{0}
    c0c8:	e24bd004 	sub	sp, fp, #4
    c0cc:	e8bd8800 	pop	{fp, pc}

0000c0d0 <_ZN6UnrollILj14EE4callIZNK4GPIO12pull_up_downIA28_jEEv10PUD_STATUSRKT_EUlvE_EEvS8_>:
    c0d0:	e92d4800 	push	{fp, lr}
    c0d4:	e28db004 	add	fp, sp, #4
    c0d8:	e24dd008 	sub	sp, sp, #8
    c0dc:	e50b0008 	str	r0, [fp, #-8]
    c0e0:	e51b0008 	ldr	r0, [fp, #-8]
    c0e4:	ebfff3df 	bl	9068 <_ZZNK4GPIO12pull_up_downIA28_jEEv10PUD_STATUSRKT_ENKUlvE_clEv>
    c0e8:	e51b0008 	ldr	r0, [fp, #-8]
    c0ec:	eb00000d 	bl	c128 <_ZN6UnrollILj13EE4callIZNK4GPIO12pull_up_downIA28_jEEv10PUD_STATUSRKT_EUlvE_EEvS8_>
    c0f0:	e320f000 	nop	{0}
    c0f4:	e24bd004 	sub	sp, fp, #4
    c0f8:	e8bd8800 	pop	{fp, pc}

0000c0fc <_ZN6UnrollILj14EE4callIZNK4GPIO12pull_up_downIA28_jEEv10PUD_STATUSRKT_EUlvE0_EEvS8_>:
    c0fc:	e92d4800 	push	{fp, lr}
    c100:	e28db004 	add	fp, sp, #4
    c104:	e24dd008 	sub	sp, sp, #8
    c108:	e50b0008 	str	r0, [fp, #-8]
    c10c:	e51b0008 	ldr	r0, [fp, #-8]
    c110:	ebfff3e2 	bl	90a0 <_ZZNK4GPIO12pull_up_downIA28_jEEv10PUD_STATUSRKT_ENKUlvE0_clEv>
    c114:	e51b0008 	ldr	r0, [fp, #-8]
    c118:	eb00000d 	bl	c154 <_ZN6UnrollILj13EE4callIZNK4GPIO12pull_up_downIA28_jEEv10PUD_STATUSRKT_EUlvE0_EEvS8_>
    c11c:	e320f000 	nop	{0}
    c120:	e24bd004 	sub	sp, fp, #4
    c124:	e8bd8800 	pop	{fp, pc}

0000c128 <_ZN6UnrollILj13EE4callIZNK4GPIO12pull_up_downIA28_jEEv10PUD_STATUSRKT_EUlvE_EEvS8_>:
    c128:	e92d4800 	push	{fp, lr}
    c12c:	e28db004 	add	fp, sp, #4
    c130:	e24dd008 	sub	sp, sp, #8
    c134:	e50b0008 	str	r0, [fp, #-8]
    c138:	e51b0008 	ldr	r0, [fp, #-8]
    c13c:	ebfff3c9 	bl	9068 <_ZZNK4GPIO12pull_up_downIA28_jEEv10PUD_STATUSRKT_ENKUlvE_clEv>
    c140:	e51b0008 	ldr	r0, [fp, #-8]
    c144:	eb00000d 	bl	c180 <_ZN6UnrollILj12EE4callIZNK4GPIO12pull_up_downIA28_jEEv10PUD_STATUSRKT_EUlvE_EEvS8_>
    c148:	e320f000 	nop	{0}
    c14c:	e24bd004 	sub	sp, fp, #4
    c150:	e8bd8800 	pop	{fp, pc}

0000c154 <_ZN6UnrollILj13EE4callIZNK4GPIO12pull_up_downIA28_jEEv10PUD_STATUSRKT_EUlvE0_EEvS8_>:
    c154:	e92d4800 	push	{fp, lr}
    c158:	e28db004 	add	fp, sp, #4
    c15c:	e24dd008 	sub	sp, sp, #8
    c160:	e50b0008 	str	r0, [fp, #-8]
    c164:	e51b0008 	ldr	r0, [fp, #-8]
    c168:	ebfff3cc 	bl	90a0 <_ZZNK4GPIO12pull_up_downIA28_jEEv10PUD_STATUSRKT_ENKUlvE0_clEv>
    c16c:	e51b0008 	ldr	r0, [fp, #-8]
    c170:	eb00000d 	bl	c1ac <_ZN6UnrollILj12EE4callIZNK4GPIO12pull_up_downIA28_jEEv10PUD_STATUSRKT_EUlvE0_EEvS8_>
    c174:	e320f000 	nop	{0}
    c178:	e24bd004 	sub	sp, fp, #4
    c17c:	e8bd8800 	pop	{fp, pc}

0000c180 <_ZN6UnrollILj12EE4callIZNK4GPIO12pull_up_downIA28_jEEv10PUD_STATUSRKT_EUlvE_EEvS8_>:
    c180:	e92d4800 	push	{fp, lr}
    c184:	e28db004 	add	fp, sp, #4
    c188:	e24dd008 	sub	sp, sp, #8
    c18c:	e50b0008 	str	r0, [fp, #-8]
    c190:	e51b0008 	ldr	r0, [fp, #-8]
    c194:	ebfff3b3 	bl	9068 <_ZZNK4GPIO12pull_up_downIA28_jEEv10PUD_STATUSRKT_ENKUlvE_clEv>
    c198:	e51b0008 	ldr	r0, [fp, #-8]
    c19c:	eb00000d 	bl	c1d8 <_ZN6UnrollILj11EE4callIZNK4GPIO12pull_up_downIA28_jEEv10PUD_STATUSRKT_EUlvE_EEvS8_>
    c1a0:	e320f000 	nop	{0}
    c1a4:	e24bd004 	sub	sp, fp, #4
    c1a8:	e8bd8800 	pop	{fp, pc}

0000c1ac <_ZN6UnrollILj12EE4callIZNK4GPIO12pull_up_downIA28_jEEv10PUD_STATUSRKT_EUlvE0_EEvS8_>:
    c1ac:	e92d4800 	push	{fp, lr}
    c1b0:	e28db004 	add	fp, sp, #4
    c1b4:	e24dd008 	sub	sp, sp, #8
    c1b8:	e50b0008 	str	r0, [fp, #-8]
    c1bc:	e51b0008 	ldr	r0, [fp, #-8]
    c1c0:	ebfff3b6 	bl	90a0 <_ZZNK4GPIO12pull_up_downIA28_jEEv10PUD_STATUSRKT_ENKUlvE0_clEv>
    c1c4:	e51b0008 	ldr	r0, [fp, #-8]
    c1c8:	eb00000d 	bl	c204 <_ZN6UnrollILj11EE4callIZNK4GPIO12pull_up_downIA28_jEEv10PUD_STATUSRKT_EUlvE0_EEvS8_>
    c1cc:	e320f000 	nop	{0}
    c1d0:	e24bd004 	sub	sp, fp, #4
    c1d4:	e8bd8800 	pop	{fp, pc}

0000c1d8 <_ZN6UnrollILj11EE4callIZNK4GPIO12pull_up_downIA28_jEEv10PUD_STATUSRKT_EUlvE_EEvS8_>:
    c1d8:	e92d4800 	push	{fp, lr}
    c1dc:	e28db004 	add	fp, sp, #4
    c1e0:	e24dd008 	sub	sp, sp, #8
    c1e4:	e50b0008 	str	r0, [fp, #-8]
    c1e8:	e51b0008 	ldr	r0, [fp, #-8]
    c1ec:	ebfff39d 	bl	9068 <_ZZNK4GPIO12pull_up_downIA28_jEEv10PUD_STATUSRKT_ENKUlvE_clEv>
    c1f0:	e51b0008 	ldr	r0, [fp, #-8]
    c1f4:	eb00000d 	bl	c230 <_ZN6UnrollILj10EE4callIZNK4GPIO12pull_up_downIA28_jEEv10PUD_STATUSRKT_EUlvE_EEvS8_>
    c1f8:	e320f000 	nop	{0}
    c1fc:	e24bd004 	sub	sp, fp, #4
    c200:	e8bd8800 	pop	{fp, pc}

0000c204 <_ZN6UnrollILj11EE4callIZNK4GPIO12pull_up_downIA28_jEEv10PUD_STATUSRKT_EUlvE0_EEvS8_>:
    c204:	e92d4800 	push	{fp, lr}
    c208:	e28db004 	add	fp, sp, #4
    c20c:	e24dd008 	sub	sp, sp, #8
    c210:	e50b0008 	str	r0, [fp, #-8]
    c214:	e51b0008 	ldr	r0, [fp, #-8]
    c218:	ebfff3a0 	bl	90a0 <_ZZNK4GPIO12pull_up_downIA28_jEEv10PUD_STATUSRKT_ENKUlvE0_clEv>
    c21c:	e51b0008 	ldr	r0, [fp, #-8]
    c220:	eb00000d 	bl	c25c <_ZN6UnrollILj10EE4callIZNK4GPIO12pull_up_downIA28_jEEv10PUD_STATUSRKT_EUlvE0_EEvS8_>
    c224:	e320f000 	nop	{0}
    c228:	e24bd004 	sub	sp, fp, #4
    c22c:	e8bd8800 	pop	{fp, pc}

0000c230 <_ZN6UnrollILj10EE4callIZNK4GPIO12pull_up_downIA28_jEEv10PUD_STATUSRKT_EUlvE_EEvS8_>:
    c230:	e92d4800 	push	{fp, lr}
    c234:	e28db004 	add	fp, sp, #4
    c238:	e24dd008 	sub	sp, sp, #8
    c23c:	e50b0008 	str	r0, [fp, #-8]
    c240:	e51b0008 	ldr	r0, [fp, #-8]
    c244:	ebfff387 	bl	9068 <_ZZNK4GPIO12pull_up_downIA28_jEEv10PUD_STATUSRKT_ENKUlvE_clEv>
    c248:	e51b0008 	ldr	r0, [fp, #-8]
    c24c:	eb00000d 	bl	c288 <_ZN6UnrollILj9EE4callIZNK4GPIO12pull_up_downIA28_jEEv10PUD_STATUSRKT_EUlvE_EEvS8_>
    c250:	e320f000 	nop	{0}
    c254:	e24bd004 	sub	sp, fp, #4
    c258:	e8bd8800 	pop	{fp, pc}

0000c25c <_ZN6UnrollILj10EE4callIZNK4GPIO12pull_up_downIA28_jEEv10PUD_STATUSRKT_EUlvE0_EEvS8_>:
    c25c:	e92d4800 	push	{fp, lr}
    c260:	e28db004 	add	fp, sp, #4
    c264:	e24dd008 	sub	sp, sp, #8
    c268:	e50b0008 	str	r0, [fp, #-8]
    c26c:	e51b0008 	ldr	r0, [fp, #-8]
    c270:	ebfff38a 	bl	90a0 <_ZZNK4GPIO12pull_up_downIA28_jEEv10PUD_STATUSRKT_ENKUlvE0_clEv>
    c274:	e51b0008 	ldr	r0, [fp, #-8]
    c278:	eb00000d 	bl	c2b4 <_ZN6UnrollILj9EE4callIZNK4GPIO12pull_up_downIA28_jEEv10PUD_STATUSRKT_EUlvE0_EEvS8_>
    c27c:	e320f000 	nop	{0}
    c280:	e24bd004 	sub	sp, fp, #4
    c284:	e8bd8800 	pop	{fp, pc}

0000c288 <_ZN6UnrollILj9EE4callIZNK4GPIO12pull_up_downIA28_jEEv10PUD_STATUSRKT_EUlvE_EEvS8_>:
    c288:	e92d4800 	push	{fp, lr}
    c28c:	e28db004 	add	fp, sp, #4
    c290:	e24dd008 	sub	sp, sp, #8
    c294:	e50b0008 	str	r0, [fp, #-8]
    c298:	e51b0008 	ldr	r0, [fp, #-8]
    c29c:	ebfff371 	bl	9068 <_ZZNK4GPIO12pull_up_downIA28_jEEv10PUD_STATUSRKT_ENKUlvE_clEv>
    c2a0:	e51b0008 	ldr	r0, [fp, #-8]
    c2a4:	eb00000d 	bl	c2e0 <_ZN6UnrollILj8EE4callIZNK4GPIO12pull_up_downIA28_jEEv10PUD_STATUSRKT_EUlvE_EEvS8_>
    c2a8:	e320f000 	nop	{0}
    c2ac:	e24bd004 	sub	sp, fp, #4
    c2b0:	e8bd8800 	pop	{fp, pc}

0000c2b4 <_ZN6UnrollILj9EE4callIZNK4GPIO12pull_up_downIA28_jEEv10PUD_STATUSRKT_EUlvE0_EEvS8_>:
    c2b4:	e92d4800 	push	{fp, lr}
    c2b8:	e28db004 	add	fp, sp, #4
    c2bc:	e24dd008 	sub	sp, sp, #8
    c2c0:	e50b0008 	str	r0, [fp, #-8]
    c2c4:	e51b0008 	ldr	r0, [fp, #-8]
    c2c8:	ebfff374 	bl	90a0 <_ZZNK4GPIO12pull_up_downIA28_jEEv10PUD_STATUSRKT_ENKUlvE0_clEv>
    c2cc:	e51b0008 	ldr	r0, [fp, #-8]
    c2d0:	eb00000d 	bl	c30c <_ZN6UnrollILj8EE4callIZNK4GPIO12pull_up_downIA28_jEEv10PUD_STATUSRKT_EUlvE0_EEvS8_>
    c2d4:	e320f000 	nop	{0}
    c2d8:	e24bd004 	sub	sp, fp, #4
    c2dc:	e8bd8800 	pop	{fp, pc}

0000c2e0 <_ZN6UnrollILj8EE4callIZNK4GPIO12pull_up_downIA28_jEEv10PUD_STATUSRKT_EUlvE_EEvS8_>:
    c2e0:	e92d4800 	push	{fp, lr}
    c2e4:	e28db004 	add	fp, sp, #4
    c2e8:	e24dd008 	sub	sp, sp, #8
    c2ec:	e50b0008 	str	r0, [fp, #-8]
    c2f0:	e51b0008 	ldr	r0, [fp, #-8]
    c2f4:	ebfff35b 	bl	9068 <_ZZNK4GPIO12pull_up_downIA28_jEEv10PUD_STATUSRKT_ENKUlvE_clEv>
    c2f8:	e51b0008 	ldr	r0, [fp, #-8]
    c2fc:	eb00000d 	bl	c338 <_ZN6UnrollILj7EE4callIZNK4GPIO12pull_up_downIA28_jEEv10PUD_STATUSRKT_EUlvE_EEvS8_>
    c300:	e320f000 	nop	{0}
    c304:	e24bd004 	sub	sp, fp, #4
    c308:	e8bd8800 	pop	{fp, pc}

0000c30c <_ZN6UnrollILj8EE4callIZNK4GPIO12pull_up_downIA28_jEEv10PUD_STATUSRKT_EUlvE0_EEvS8_>:
    c30c:	e92d4800 	push	{fp, lr}
    c310:	e28db004 	add	fp, sp, #4
    c314:	e24dd008 	sub	sp, sp, #8
    c318:	e50b0008 	str	r0, [fp, #-8]
    c31c:	e51b0008 	ldr	r0, [fp, #-8]
    c320:	ebfff35e 	bl	90a0 <_ZZNK4GPIO12pull_up_downIA28_jEEv10PUD_STATUSRKT_ENKUlvE0_clEv>
    c324:	e51b0008 	ldr	r0, [fp, #-8]
    c328:	eb00000d 	bl	c364 <_ZN6UnrollILj7EE4callIZNK4GPIO12pull_up_downIA28_jEEv10PUD_STATUSRKT_EUlvE0_EEvS8_>
    c32c:	e320f000 	nop	{0}
    c330:	e24bd004 	sub	sp, fp, #4
    c334:	e8bd8800 	pop	{fp, pc}

0000c338 <_ZN6UnrollILj7EE4callIZNK4GPIO12pull_up_downIA28_jEEv10PUD_STATUSRKT_EUlvE_EEvS8_>:
    c338:	e92d4800 	push	{fp, lr}
    c33c:	e28db004 	add	fp, sp, #4
    c340:	e24dd008 	sub	sp, sp, #8
    c344:	e50b0008 	str	r0, [fp, #-8]
    c348:	e51b0008 	ldr	r0, [fp, #-8]
    c34c:	ebfff345 	bl	9068 <_ZZNK4GPIO12pull_up_downIA28_jEEv10PUD_STATUSRKT_ENKUlvE_clEv>
    c350:	e51b0008 	ldr	r0, [fp, #-8]
    c354:	eb00000d 	bl	c390 <_ZN6UnrollILj6EE4callIZNK4GPIO12pull_up_downIA28_jEEv10PUD_STATUSRKT_EUlvE_EEvS8_>
    c358:	e320f000 	nop	{0}
    c35c:	e24bd004 	sub	sp, fp, #4
    c360:	e8bd8800 	pop	{fp, pc}

0000c364 <_ZN6UnrollILj7EE4callIZNK4GPIO12pull_up_downIA28_jEEv10PUD_STATUSRKT_EUlvE0_EEvS8_>:
    c364:	e92d4800 	push	{fp, lr}
    c368:	e28db004 	add	fp, sp, #4
    c36c:	e24dd008 	sub	sp, sp, #8
    c370:	e50b0008 	str	r0, [fp, #-8]
    c374:	e51b0008 	ldr	r0, [fp, #-8]
    c378:	ebfff348 	bl	90a0 <_ZZNK4GPIO12pull_up_downIA28_jEEv10PUD_STATUSRKT_ENKUlvE0_clEv>
    c37c:	e51b0008 	ldr	r0, [fp, #-8]
    c380:	eb00000d 	bl	c3bc <_ZN6UnrollILj6EE4callIZNK4GPIO12pull_up_downIA28_jEEv10PUD_STATUSRKT_EUlvE0_EEvS8_>
    c384:	e320f000 	nop	{0}
    c388:	e24bd004 	sub	sp, fp, #4
    c38c:	e8bd8800 	pop	{fp, pc}

0000c390 <_ZN6UnrollILj6EE4callIZNK4GPIO12pull_up_downIA28_jEEv10PUD_STATUSRKT_EUlvE_EEvS8_>:
    c390:	e92d4800 	push	{fp, lr}
    c394:	e28db004 	add	fp, sp, #4
    c398:	e24dd008 	sub	sp, sp, #8
    c39c:	e50b0008 	str	r0, [fp, #-8]
    c3a0:	e51b0008 	ldr	r0, [fp, #-8]
    c3a4:	ebfff32f 	bl	9068 <_ZZNK4GPIO12pull_up_downIA28_jEEv10PUD_STATUSRKT_ENKUlvE_clEv>
    c3a8:	e51b0008 	ldr	r0, [fp, #-8]
    c3ac:	eb00000d 	bl	c3e8 <_ZN6UnrollILj5EE4callIZNK4GPIO12pull_up_downIA28_jEEv10PUD_STATUSRKT_EUlvE_EEvS8_>
    c3b0:	e320f000 	nop	{0}
    c3b4:	e24bd004 	sub	sp, fp, #4
    c3b8:	e8bd8800 	pop	{fp, pc}

0000c3bc <_ZN6UnrollILj6EE4callIZNK4GPIO12pull_up_downIA28_jEEv10PUD_STATUSRKT_EUlvE0_EEvS8_>:
    c3bc:	e92d4800 	push	{fp, lr}
    c3c0:	e28db004 	add	fp, sp, #4
    c3c4:	e24dd008 	sub	sp, sp, #8
    c3c8:	e50b0008 	str	r0, [fp, #-8]
    c3cc:	e51b0008 	ldr	r0, [fp, #-8]
    c3d0:	ebfff332 	bl	90a0 <_ZZNK4GPIO12pull_up_downIA28_jEEv10PUD_STATUSRKT_ENKUlvE0_clEv>
    c3d4:	e51b0008 	ldr	r0, [fp, #-8]
    c3d8:	eb00000d 	bl	c414 <_ZN6UnrollILj5EE4callIZNK4GPIO12pull_up_downIA28_jEEv10PUD_STATUSRKT_EUlvE0_EEvS8_>
    c3dc:	e320f000 	nop	{0}
    c3e0:	e24bd004 	sub	sp, fp, #4
    c3e4:	e8bd8800 	pop	{fp, pc}

0000c3e8 <_ZN6UnrollILj5EE4callIZNK4GPIO12pull_up_downIA28_jEEv10PUD_STATUSRKT_EUlvE_EEvS8_>:
    c3e8:	e92d4800 	push	{fp, lr}
    c3ec:	e28db004 	add	fp, sp, #4
    c3f0:	e24dd008 	sub	sp, sp, #8
    c3f4:	e50b0008 	str	r0, [fp, #-8]
    c3f8:	e51b0008 	ldr	r0, [fp, #-8]
    c3fc:	ebfff319 	bl	9068 <_ZZNK4GPIO12pull_up_downIA28_jEEv10PUD_STATUSRKT_ENKUlvE_clEv>
    c400:	e51b0008 	ldr	r0, [fp, #-8]
    c404:	eb00000d 	bl	c440 <_ZN6UnrollILj4EE4callIZNK4GPIO12pull_up_downIA28_jEEv10PUD_STATUSRKT_EUlvE_EEvS8_>
    c408:	e320f000 	nop	{0}
    c40c:	e24bd004 	sub	sp, fp, #4
    c410:	e8bd8800 	pop	{fp, pc}

0000c414 <_ZN6UnrollILj5EE4callIZNK4GPIO12pull_up_downIA28_jEEv10PUD_STATUSRKT_EUlvE0_EEvS8_>:
    c414:	e92d4800 	push	{fp, lr}
    c418:	e28db004 	add	fp, sp, #4
    c41c:	e24dd008 	sub	sp, sp, #8
    c420:	e50b0008 	str	r0, [fp, #-8]
    c424:	e51b0008 	ldr	r0, [fp, #-8]
    c428:	ebfff31c 	bl	90a0 <_ZZNK4GPIO12pull_up_downIA28_jEEv10PUD_STATUSRKT_ENKUlvE0_clEv>
    c42c:	e51b0008 	ldr	r0, [fp, #-8]
    c430:	eb00000d 	bl	c46c <_ZN6UnrollILj4EE4callIZNK4GPIO12pull_up_downIA28_jEEv10PUD_STATUSRKT_EUlvE0_EEvS8_>
    c434:	e320f000 	nop	{0}
    c438:	e24bd004 	sub	sp, fp, #4
    c43c:	e8bd8800 	pop	{fp, pc}

0000c440 <_ZN6UnrollILj4EE4callIZNK4GPIO12pull_up_downIA28_jEEv10PUD_STATUSRKT_EUlvE_EEvS8_>:
    c440:	e92d4800 	push	{fp, lr}
    c444:	e28db004 	add	fp, sp, #4
    c448:	e24dd008 	sub	sp, sp, #8
    c44c:	e50b0008 	str	r0, [fp, #-8]
    c450:	e51b0008 	ldr	r0, [fp, #-8]
    c454:	ebfff303 	bl	9068 <_ZZNK4GPIO12pull_up_downIA28_jEEv10PUD_STATUSRKT_ENKUlvE_clEv>
    c458:	e51b0008 	ldr	r0, [fp, #-8]
    c45c:	eb00000d 	bl	c498 <_ZN6UnrollILj3EE4callIZNK4GPIO12pull_up_downIA28_jEEv10PUD_STATUSRKT_EUlvE_EEvS8_>
    c460:	e320f000 	nop	{0}
    c464:	e24bd004 	sub	sp, fp, #4
    c468:	e8bd8800 	pop	{fp, pc}

0000c46c <_ZN6UnrollILj4EE4callIZNK4GPIO12pull_up_downIA28_jEEv10PUD_STATUSRKT_EUlvE0_EEvS8_>:
    c46c:	e92d4800 	push	{fp, lr}
    c470:	e28db004 	add	fp, sp, #4
    c474:	e24dd008 	sub	sp, sp, #8
    c478:	e50b0008 	str	r0, [fp, #-8]
    c47c:	e51b0008 	ldr	r0, [fp, #-8]
    c480:	ebfff306 	bl	90a0 <_ZZNK4GPIO12pull_up_downIA28_jEEv10PUD_STATUSRKT_ENKUlvE0_clEv>
    c484:	e51b0008 	ldr	r0, [fp, #-8]
    c488:	eb00000d 	bl	c4c4 <_ZN6UnrollILj3EE4callIZNK4GPIO12pull_up_downIA28_jEEv10PUD_STATUSRKT_EUlvE0_EEvS8_>
    c48c:	e320f000 	nop	{0}
    c490:	e24bd004 	sub	sp, fp, #4
    c494:	e8bd8800 	pop	{fp, pc}

0000c498 <_ZN6UnrollILj3EE4callIZNK4GPIO12pull_up_downIA28_jEEv10PUD_STATUSRKT_EUlvE_EEvS8_>:
    c498:	e92d4800 	push	{fp, lr}
    c49c:	e28db004 	add	fp, sp, #4
    c4a0:	e24dd008 	sub	sp, sp, #8
    c4a4:	e50b0008 	str	r0, [fp, #-8]
    c4a8:	e51b0008 	ldr	r0, [fp, #-8]
    c4ac:	ebfff2ed 	bl	9068 <_ZZNK4GPIO12pull_up_downIA28_jEEv10PUD_STATUSRKT_ENKUlvE_clEv>
    c4b0:	e51b0008 	ldr	r0, [fp, #-8]
    c4b4:	eb00000d 	bl	c4f0 <_ZN6UnrollILj2EE4callIZNK4GPIO12pull_up_downIA28_jEEv10PUD_STATUSRKT_EUlvE_EEvS8_>
    c4b8:	e320f000 	nop	{0}
    c4bc:	e24bd004 	sub	sp, fp, #4
    c4c0:	e8bd8800 	pop	{fp, pc}

0000c4c4 <_ZN6UnrollILj3EE4callIZNK4GPIO12pull_up_downIA28_jEEv10PUD_STATUSRKT_EUlvE0_EEvS8_>:
    c4c4:	e92d4800 	push	{fp, lr}
    c4c8:	e28db004 	add	fp, sp, #4
    c4cc:	e24dd008 	sub	sp, sp, #8
    c4d0:	e50b0008 	str	r0, [fp, #-8]
    c4d4:	e51b0008 	ldr	r0, [fp, #-8]
    c4d8:	ebfff2f0 	bl	90a0 <_ZZNK4GPIO12pull_up_downIA28_jEEv10PUD_STATUSRKT_ENKUlvE0_clEv>
    c4dc:	e51b0008 	ldr	r0, [fp, #-8]
    c4e0:	eb00000d 	bl	c51c <_ZN6UnrollILj2EE4callIZNK4GPIO12pull_up_downIA28_jEEv10PUD_STATUSRKT_EUlvE0_EEvS8_>
    c4e4:	e320f000 	nop	{0}
    c4e8:	e24bd004 	sub	sp, fp, #4
    c4ec:	e8bd8800 	pop	{fp, pc}

0000c4f0 <_ZN6UnrollILj2EE4callIZNK4GPIO12pull_up_downIA28_jEEv10PUD_STATUSRKT_EUlvE_EEvS8_>:
    c4f0:	e92d4800 	push	{fp, lr}
    c4f4:	e28db004 	add	fp, sp, #4
    c4f8:	e24dd008 	sub	sp, sp, #8
    c4fc:	e50b0008 	str	r0, [fp, #-8]
    c500:	e51b0008 	ldr	r0, [fp, #-8]
    c504:	ebfff2d7 	bl	9068 <_ZZNK4GPIO12pull_up_downIA28_jEEv10PUD_STATUSRKT_ENKUlvE_clEv>
    c508:	e51b0008 	ldr	r0, [fp, #-8]
    c50c:	eb00000d 	bl	c548 <_ZN6UnrollILj1EE4callIZNK4GPIO12pull_up_downIA28_jEEv10PUD_STATUSRKT_EUlvE_EEvS8_>
    c510:	e320f000 	nop	{0}
    c514:	e24bd004 	sub	sp, fp, #4
    c518:	e8bd8800 	pop	{fp, pc}

0000c51c <_ZN6UnrollILj2EE4callIZNK4GPIO12pull_up_downIA28_jEEv10PUD_STATUSRKT_EUlvE0_EEvS8_>:
    c51c:	e92d4800 	push	{fp, lr}
    c520:	e28db004 	add	fp, sp, #4
    c524:	e24dd008 	sub	sp, sp, #8
    c528:	e50b0008 	str	r0, [fp, #-8]
    c52c:	e51b0008 	ldr	r0, [fp, #-8]
    c530:	ebfff2da 	bl	90a0 <_ZZNK4GPIO12pull_up_downIA28_jEEv10PUD_STATUSRKT_ENKUlvE0_clEv>
    c534:	e51b0008 	ldr	r0, [fp, #-8]
    c538:	eb00000d 	bl	c574 <_ZN6UnrollILj1EE4callIZNK4GPIO12pull_up_downIA28_jEEv10PUD_STATUSRKT_EUlvE0_EEvS8_>
    c53c:	e320f000 	nop	{0}
    c540:	e24bd004 	sub	sp, fp, #4
    c544:	e8bd8800 	pop	{fp, pc}

0000c548 <_ZN6UnrollILj1EE4callIZNK4GPIO12pull_up_downIA28_jEEv10PUD_STATUSRKT_EUlvE_EEvS8_>:
    c548:	e92d4800 	push	{fp, lr}
    c54c:	e28db004 	add	fp, sp, #4
    c550:	e24dd008 	sub	sp, sp, #8
    c554:	e50b0008 	str	r0, [fp, #-8]
    c558:	e51b0008 	ldr	r0, [fp, #-8]
    c55c:	ebfff2c1 	bl	9068 <_ZZNK4GPIO12pull_up_downIA28_jEEv10PUD_STATUSRKT_ENKUlvE_clEv>
    c560:	e51b0008 	ldr	r0, [fp, #-8]
    c564:	eb00000d 	bl	c5a0 <_ZN6UnrollILj0EE4callIZNK4GPIO12pull_up_downIA28_jEEv10PUD_STATUSRKT_EUlvE_EEvS8_>
    c568:	e320f000 	nop	{0}
    c56c:	e24bd004 	sub	sp, fp, #4
    c570:	e8bd8800 	pop	{fp, pc}

0000c574 <_ZN6UnrollILj1EE4callIZNK4GPIO12pull_up_downIA28_jEEv10PUD_STATUSRKT_EUlvE0_EEvS8_>:
    c574:	e92d4800 	push	{fp, lr}
    c578:	e28db004 	add	fp, sp, #4
    c57c:	e24dd008 	sub	sp, sp, #8
    c580:	e50b0008 	str	r0, [fp, #-8]
    c584:	e51b0008 	ldr	r0, [fp, #-8]
    c588:	ebfff2c4 	bl	90a0 <_ZZNK4GPIO12pull_up_downIA28_jEEv10PUD_STATUSRKT_ENKUlvE0_clEv>
    c58c:	e51b0008 	ldr	r0, [fp, #-8]
    c590:	eb00000b 	bl	c5c4 <_ZN6UnrollILj0EE4callIZNK4GPIO12pull_up_downIA28_jEEv10PUD_STATUSRKT_EUlvE0_EEvS8_>
    c594:	e320f000 	nop	{0}
    c598:	e24bd004 	sub	sp, fp, #4
    c59c:	e8bd8800 	pop	{fp, pc}

0000c5a0 <_ZN6UnrollILj0EE4callIZNK4GPIO12pull_up_downIA28_jEEv10PUD_STATUSRKT_EUlvE_EEvS8_>:
    c5a0:	e92d4800 	push	{fp, lr}
    c5a4:	e28db004 	add	fp, sp, #4
    c5a8:	e24dd008 	sub	sp, sp, #8
    c5ac:	e50b0008 	str	r0, [fp, #-8]
    c5b0:	e51b0008 	ldr	r0, [fp, #-8]
    c5b4:	ebfff2ab 	bl	9068 <_ZZNK4GPIO12pull_up_downIA28_jEEv10PUD_STATUSRKT_ENKUlvE_clEv>
    c5b8:	e320f000 	nop	{0}
    c5bc:	e24bd004 	sub	sp, fp, #4
    c5c0:	e8bd8800 	pop	{fp, pc}

0000c5c4 <_ZN6UnrollILj0EE4callIZNK4GPIO12pull_up_downIA28_jEEv10PUD_STATUSRKT_EUlvE0_EEvS8_>:
    c5c4:	e92d4800 	push	{fp, lr}
    c5c8:	e28db004 	add	fp, sp, #4
    c5cc:	e24dd008 	sub	sp, sp, #8
    c5d0:	e50b0008 	str	r0, [fp, #-8]
    c5d4:	e51b0008 	ldr	r0, [fp, #-8]
    c5d8:	ebfff2b0 	bl	90a0 <_ZZNK4GPIO12pull_up_downIA28_jEEv10PUD_STATUSRKT_ENKUlvE0_clEv>
    c5dc:	e320f000 	nop	{0}
    c5e0:	e24bd004 	sub	sp, fp, #4
    c5e4:	e8bd8800 	pop	{fp, pc}

0000c5e8 <_cstartup>:
    c5e8:	e92d4800 	push	{fp, lr}
    c5ec:	e28db004 	add	fp, sp, #4
    c5f0:	e24dd018 	sub	sp, sp, #24
    c5f4:	e50b0010 	str	r0, [fp, #-16]
    c5f8:	e50b1014 	str	r1, [fp, #-20]	; 0xffffffec
    c5fc:	e50b2018 	str	r2, [fp, #-24]	; 0xffffffe8
    c600:	e30033b0 	movw	r3, #944	; 0x3b0
    c604:	e3403001 	movt	r3, #1
    c608:	e50b3008 	str	r3, [fp, #-8]
    c60c:	e3003410 	movw	r3, #1040	; 0x410
    c610:	e3403001 	movt	r3, #1
    c614:	e50b300c 	str	r3, [fp, #-12]
    c618:	e51b2008 	ldr	r2, [fp, #-8]
    c61c:	e51b300c 	ldr	r3, [fp, #-12]
    c620:	e1520003 	cmp	r2, r3
    c624:	2a000005 	bcs	c640 <_cstartup+0x58>
    c628:	e51b3008 	ldr	r3, [fp, #-8]
    c62c:	e2832004 	add	r2, r3, #4
    c630:	e50b2008 	str	r2, [fp, #-8]
    c634:	e3a02000 	mov	r2, #0
    c638:	e5832000 	str	r2, [r3]
    c63c:	eafffff5 	b	c618 <_cstartup+0x30>
    c640:	e51b2018 	ldr	r2, [fp, #-24]	; 0xffffffe8
    c644:	e51b1014 	ldr	r1, [fp, #-20]	; 0xffffffec
    c648:	e51b0010 	ldr	r0, [fp, #-16]
    c64c:	ebfff08c 	bl	8884 <_Z11kernel_mainjjj>
    c650:	eafffffe 	b	c650 <_cstartup+0x68>

0000c654 <_sbrk>:
    c654:	e52db004 	push	{fp}		; (str fp, [sp, #-4]!)
    c658:	e28db000 	add	fp, sp, #0
    c65c:	e24dd014 	sub	sp, sp, #20
    c660:	e50b0010 	str	r0, [fp, #-16]
    c664:	e30033b0 	movw	r3, #944	; 0x3b0
    c668:	e3403001 	movt	r3, #1
    c66c:	e5933000 	ldr	r3, [r3]
    c670:	e3530000 	cmp	r3, #0
    c674:	1a000004 	bne	c68c <_sbrk+0x38>
    c678:	e30033b0 	movw	r3, #944	; 0x3b0
    c67c:	e3403001 	movt	r3, #1
    c680:	e3002410 	movw	r2, #1040	; 0x410
    c684:	e3402001 	movt	r2, #1
    c688:	e5832000 	str	r2, [r3]
    c68c:	e30033b0 	movw	r3, #944	; 0x3b0
    c690:	e3403001 	movt	r3, #1
    c694:	e5933000 	ldr	r3, [r3]
    c698:	e50b3008 	str	r3, [fp, #-8]
    c69c:	e30033b0 	movw	r3, #944	; 0x3b0
    c6a0:	e3403001 	movt	r3, #1
    c6a4:	e5932000 	ldr	r2, [r3]
    c6a8:	e51b3010 	ldr	r3, [fp, #-16]
    c6ac:	e0822003 	add	r2, r2, r3
    c6b0:	e30033b0 	movw	r3, #944	; 0x3b0
    c6b4:	e3403001 	movt	r3, #1
    c6b8:	e5832000 	str	r2, [r3]
    c6bc:	e51b3008 	ldr	r3, [fp, #-8]
    c6c0:	e1a00003 	mov	r0, r3
    c6c4:	e28bd000 	add	sp, fp, #0
    c6c8:	e49db004 	pop	{fp}		; (ldr fp, [sp], #4)
    c6cc:	e12fff1e 	bx	lr

0000c6d0 <_exit>:
    c6d0:	e52db004 	push	{fp}		; (str fp, [sp, #-4]!)
    c6d4:	e28db000 	add	fp, sp, #0
    c6d8:	e24dd00c 	sub	sp, sp, #12
    c6dc:	e50b0008 	str	r0, [fp, #-8]
    c6e0:	eafffffe 	b	c6e0 <_exit+0x10>

0000c6e4 <_kill>:
    c6e4:	e52db004 	push	{fp}		; (str fp, [sp, #-4]!)
    c6e8:	e28db000 	add	fp, sp, #0
    c6ec:	e24dd00c 	sub	sp, sp, #12
    c6f0:	e50b0008 	str	r0, [fp, #-8]
    c6f4:	e320f000 	nop	{0}
    c6f8:	e28bd000 	add	sp, fp, #0
    c6fc:	e49db004 	pop	{fp}		; (ldr fp, [sp], #4)
    c700:	e12fff1e 	bx	lr

0000c704 <_getpid>:
    c704:	e52db004 	push	{fp}		; (str fp, [sp, #-4]!)
    c708:	e28db000 	add	fp, sp, #0
    c70c:	e24dd00c 	sub	sp, sp, #12
    c710:	e50b0008 	str	r0, [fp, #-8]
    c714:	e320f000 	nop	{0}
    c718:	e28bd000 	add	sp, fp, #0
    c71c:	e49db004 	pop	{fp}		; (ldr fp, [sp], #4)
    c720:	e12fff1e 	bx	lr

0000c724 <selfrel_offset31>:
    c724:	6803      	ldr	r3, [r0, #0]
    c726:	005a      	lsls	r2, r3, #1
    c728:	bf4c      	ite	mi
    c72a:	f043 4300 	orrmi.w	r3, r3, #2147483648	; 0x80000000
    c72e:	f023 4300 	bicpl.w	r3, r3, #2147483648	; 0x80000000
    c732:	4418      	add	r0, r3
    c734:	4770      	bx	lr
    c736:	bf00      	nop

0000c738 <search_EIT_table>:
    c738:	b371      	cbz	r1, c798 <search_EIT_table+0x60>
    c73a:	e92d 4ff8 	stmdb	sp!, {r3, r4, r5, r6, r7, r8, r9, sl, fp, lr}
    c73e:	f101 3aff 	add.w	sl, r1, #4294967295
    c742:	4690      	mov	r8, r2
    c744:	4606      	mov	r6, r0
    c746:	2700      	movs	r7, #0
    c748:	46d1      	mov	r9, sl
    c74a:	eb07 0409 	add.w	r4, r7, r9
    c74e:	eb04 74d4 	add.w	r4, r4, r4, lsr #31
    c752:	1064      	asrs	r4, r4, #1
    c754:	00e5      	lsls	r5, r4, #3
    c756:	1971      	adds	r1, r6, r5
    c758:	4608      	mov	r0, r1
    c75a:	f7ff ffe3 	bl	c724 <selfrel_offset31>
    c75e:	45a2      	cmp	sl, r4
    c760:	4683      	mov	fp, r0
    c762:	f105 0008 	add.w	r0, r5, #8
    c766:	4430      	add	r0, r6
    c768:	d00c      	beq.n	c784 <search_EIT_table+0x4c>
    c76a:	f7ff ffdb 	bl	c724 <selfrel_offset31>
    c76e:	45c3      	cmp	fp, r8
    c770:	f100 30ff 	add.w	r0, r0, #4294967295
    c774:	d808      	bhi.n	c788 <search_EIT_table+0x50>
    c776:	4540      	cmp	r0, r8
    c778:	f104 0701 	add.w	r7, r4, #1
    c77c:	d3e5      	bcc.n	c74a <search_EIT_table+0x12>
    c77e:	4608      	mov	r0, r1
    c780:	e8bd 8ff8 	ldmia.w	sp!, {r3, r4, r5, r6, r7, r8, r9, sl, fp, pc}
    c784:	45c3      	cmp	fp, r8
    c786:	d9fa      	bls.n	c77e <search_EIT_table+0x46>
    c788:	42a7      	cmp	r7, r4
    c78a:	f104 39ff 	add.w	r9, r4, #4294967295
    c78e:	d1dc      	bne.n	c74a <search_EIT_table+0x12>
    c790:	2100      	movs	r1, #0
    c792:	4608      	mov	r0, r1
    c794:	e8bd 8ff8 	ldmia.w	sp!, {r3, r4, r5, r6, r7, r8, r9, sl, fp, pc}
    c798:	4608      	mov	r0, r1
    c79a:	4770      	bx	lr

0000c79c <__gnu_unwind_get_pr_addr>:
    c79c:	2801      	cmp	r0, #1
    c79e:	d009      	beq.n	c7b4 <__gnu_unwind_get_pr_addr+0x18>
    c7a0:	2802      	cmp	r0, #2
    c7a2:	d00c      	beq.n	c7be <__gnu_unwind_get_pr_addr+0x22>
    c7a4:	2800      	cmp	r0, #0
    c7a6:	f64c 60d5 	movw	r0, #52949	; 0xced5
    c7aa:	f2c0 0000 	movt	r0, #0
    c7ae:	bf18      	it	ne
    c7b0:	2000      	movne	r0, #0
    c7b2:	4770      	bx	lr
    c7b4:	f64c 60d9 	movw	r0, #52953	; 0xced9
    c7b8:	f2c0 0000 	movt	r0, #0
    c7bc:	4770      	bx	lr
    c7be:	f64c 60dd 	movw	r0, #52957	; 0xcedd
    c7c2:	f2c0 0000 	movt	r0, #0
    c7c6:	4770      	bx	lr

0000c7c8 <get_eit_entry>:
    c7c8:	f240 0300 	movw	r3, #0
    c7cc:	f2c0 0300 	movt	r3, #0
    c7d0:	b530      	push	{r4, r5, lr}
    c7d2:	4604      	mov	r4, r0
    c7d4:	b083      	sub	sp, #12
    c7d6:	1e8d      	subs	r5, r1, #2
    c7d8:	2b00      	cmp	r3, #0
    c7da:	d031      	beq.n	c840 <get_eit_entry+0x78>
    c7dc:	a901      	add	r1, sp, #4
    c7de:	4628      	mov	r0, r5
    c7e0:	f3af 8000 	nop.w
    c7e4:	b330      	cbz	r0, c834 <get_eit_entry+0x6c>
    c7e6:	9901      	ldr	r1, [sp, #4]
    c7e8:	462a      	mov	r2, r5
    c7ea:	f7ff ffa5 	bl	c738 <search_EIT_table>
    c7ee:	4601      	mov	r1, r0
    c7f0:	b300      	cbz	r0, c834 <get_eit_entry+0x6c>
    c7f2:	f7ff ff97 	bl	c724 <selfrel_offset31>
    c7f6:	684b      	ldr	r3, [r1, #4]
    c7f8:	64a0      	str	r0, [r4, #72]	; 0x48
    c7fa:	2b01      	cmp	r3, #1
    c7fc:	bf02      	ittt	eq
    c7fe:	2200      	moveq	r2, #0
    c800:	2305      	moveq	r3, #5
    c802:	6122      	streq	r2, [r4, #16]
    c804:	d013      	beq.n	c82e <get_eit_entry+0x66>
    c806:	2b00      	cmp	r3, #0
    c808:	f101 0004 	add.w	r0, r1, #4
    c80c:	bfbe      	ittt	lt
    c80e:	64e0      	strlt	r0, [r4, #76]	; 0x4c
    c810:	2301      	movlt	r3, #1
    c812:	6523      	strlt	r3, [r4, #80]	; 0x50
    c814:	db04      	blt.n	c820 <get_eit_entry+0x58>
    c816:	f7ff ff85 	bl	c724 <selfrel_offset31>
    c81a:	2300      	movs	r3, #0
    c81c:	e9c4 0313 	strd	r0, r3, [r4, #76]	; 0x4c
    c820:	6803      	ldr	r3, [r0, #0]
    c822:	2b00      	cmp	r3, #0
    c824:	db18      	blt.n	c858 <get_eit_entry+0x90>
    c826:	f7ff ff7d 	bl	c724 <selfrel_offset31>
    c82a:	2300      	movs	r3, #0
    c82c:	6120      	str	r0, [r4, #16]
    c82e:	4618      	mov	r0, r3
    c830:	b003      	add	sp, #12
    c832:	bd30      	pop	{r4, r5, pc}
    c834:	2309      	movs	r3, #9
    c836:	2200      	movs	r2, #0
    c838:	4618      	mov	r0, r3
    c83a:	6122      	str	r2, [r4, #16]
    c83c:	b003      	add	sp, #12
    c83e:	bd30      	pop	{r4, r5, pc}
    c840:	f64f 3170 	movw	r1, #64368	; 0xfb70
    c844:	f24f 1038 	movw	r0, #61752	; 0xf138
    c848:	f2c0 0100 	movt	r1, #0
    c84c:	f2c0 0000 	movt	r0, #0
    c850:	1a09      	subs	r1, r1, r0
    c852:	10c9      	asrs	r1, r1, #3
    c854:	9101      	str	r1, [sp, #4]
    c856:	e7c7      	b.n	c7e8 <get_eit_entry+0x20>
    c858:	f3c3 6003 	ubfx	r0, r3, #24, #4
    c85c:	f7ff ff9e 	bl	c79c <__gnu_unwind_get_pr_addr>
    c860:	2800      	cmp	r0, #0
    c862:	6120      	str	r0, [r4, #16]
    c864:	bf14      	ite	ne
    c866:	2300      	movne	r3, #0
    c868:	2309      	moveq	r3, #9
    c86a:	4618      	mov	r0, r3
    c86c:	b003      	add	sp, #12
    c86e:	bd30      	pop	{r4, r5, pc}

0000c870 <restore_non_core_regs>:
    c870:	6803      	ldr	r3, [r0, #0]
    c872:	b510      	push	{r4, lr}
    c874:	07da      	lsls	r2, r3, #31
    c876:	4604      	mov	r4, r0
    c878:	d406      	bmi.n	c888 <restore_non_core_regs+0x18>
    c87a:	079b      	lsls	r3, r3, #30
    c87c:	f100 0048 	add.w	r0, r0, #72	; 0x48
    c880:	d509      	bpl.n	c896 <restore_non_core_regs+0x26>
    c882:	f000 fc95 	bl	d1b0 <__gnu_Unwind_Restore_VFP_D>
    c886:	6823      	ldr	r3, [r4, #0]
    c888:	0759      	lsls	r1, r3, #29
    c88a:	d509      	bpl.n	c8a0 <restore_non_core_regs+0x30>
    c88c:	071a      	lsls	r2, r3, #28
    c88e:	d50e      	bpl.n	c8ae <restore_non_core_regs+0x3e>
    c890:	06db      	lsls	r3, r3, #27
    c892:	d513      	bpl.n	c8bc <restore_non_core_regs+0x4c>
    c894:	bd10      	pop	{r4, pc}
    c896:	f000 fc83 	bl	d1a0 <__gnu_Unwind_Restore_VFP>
    c89a:	6823      	ldr	r3, [r4, #0]
    c89c:	0759      	lsls	r1, r3, #29
    c89e:	d4f5      	bmi.n	c88c <restore_non_core_regs+0x1c>
    c8a0:	f104 00d0 	add.w	r0, r4, #208	; 0xd0
    c8a4:	f000 fc8c 	bl	d1c0 <__gnu_Unwind_Restore_VFP_D_16_to_31>
    c8a8:	6823      	ldr	r3, [r4, #0]
    c8aa:	071a      	lsls	r2, r3, #28
    c8ac:	d4f0      	bmi.n	c890 <restore_non_core_regs+0x20>
    c8ae:	f504 70a8 	add.w	r0, r4, #336	; 0x150
    c8b2:	f000 fc8d 	bl	d1d0 <__gnu_Unwind_Restore_WMMXD>
    c8b6:	6823      	ldr	r3, [r4, #0]
    c8b8:	06db      	lsls	r3, r3, #27
    c8ba:	d4eb      	bmi.n	c894 <restore_non_core_regs+0x24>
    c8bc:	f504 70e8 	add.w	r0, r4, #464	; 0x1d0
    c8c0:	e8bd 4010 	ldmia.w	sp!, {r4, lr}
    c8c4:	f000 bcc8 	b.w	d258 <__gnu_Unwind_Restore_WMMXC>

0000c8c8 <_Unwind_decode_typeinfo_ptr.isra.0>:
    c8c8:	6803      	ldr	r3, [r0, #0]
    c8ca:	b103      	cbz	r3, c8ce <_Unwind_decode_typeinfo_ptr.isra.0+0x6>
    c8cc:	4403      	add	r3, r0
    c8ce:	4618      	mov	r0, r3
    c8d0:	4770      	bx	lr
    c8d2:	bf00      	nop

0000c8d4 <__gnu_unwind_24bit.isra.1>:
    c8d4:	2009      	movs	r0, #9
    c8d6:	4770      	bx	lr

0000c8d8 <_Unwind_DebugHook>:
    c8d8:	4770      	bx	lr
    c8da:	bf00      	nop

0000c8dc <unwind_phase2>:
    c8dc:	b5f8      	push	{r3, r4, r5, r6, r7, lr}
    c8de:	4604      	mov	r4, r0
    c8e0:	460d      	mov	r5, r1
    c8e2:	e008      	b.n	c8f6 <unwind_phase2+0x1a>
    c8e4:	6c2f      	ldr	r7, [r5, #64]	; 0x40
    c8e6:	462a      	mov	r2, r5
    c8e8:	6923      	ldr	r3, [r4, #16]
    c8ea:	4621      	mov	r1, r4
    c8ec:	2001      	movs	r0, #1
    c8ee:	6167      	str	r7, [r4, #20]
    c8f0:	4798      	blx	r3
    c8f2:	2808      	cmp	r0, #8
    c8f4:	d108      	bne.n	c908 <unwind_phase2+0x2c>
    c8f6:	6c29      	ldr	r1, [r5, #64]	; 0x40
    c8f8:	4620      	mov	r0, r4
    c8fa:	f7ff ff65 	bl	c7c8 <get_eit_entry>
    c8fe:	4606      	mov	r6, r0
    c900:	2800      	cmp	r0, #0
    c902:	d0ef      	beq.n	c8e4 <unwind_phase2+0x8>
    c904:	f000 fede 	bl	d6c4 <abort>
    c908:	2807      	cmp	r0, #7
    c90a:	d1fb      	bne.n	c904 <unwind_phase2+0x28>
    c90c:	4630      	mov	r0, r6
    c90e:	6c29      	ldr	r1, [r5, #64]	; 0x40
    c910:	f7ff ffe2 	bl	c8d8 <_Unwind_DebugHook>
    c914:	1d28      	adds	r0, r5, #4
    c916:	f000 fc37 	bl	d188 <__restore_core_regs>
    c91a:	bf00      	nop

0000c91c <unwind_phase2_forced>:
    c91c:	e92d 47f0 	stmdb	sp!, {r4, r5, r6, r7, r8, r9, sl, lr}
    c920:	1d0f      	adds	r7, r1, #4
    c922:	4605      	mov	r5, r0
    c924:	4690      	mov	r8, r2
    c926:	cf0f      	ldmia	r7!, {r0, r1, r2, r3}
    c928:	f5ad 7d72 	sub.w	sp, sp, #968	; 0x3c8
    c92c:	ae03      	add	r6, sp, #12
    c92e:	ac02      	add	r4, sp, #8
